	.section	__TEXT,__text,regular,pure_instructions
	.build_version macos, 13, 0
	.globl	__Z15mnist_util_mainiPPc        ; -- Begin function _Z15mnist_util_mainiPPc
	.p2align	2
__Z15mnist_util_mainiPPc:               ; @_Z15mnist_util_mainiPPc
	.cfi_startproc
; %bb.0:
	sub	sp, sp, #160
	.cfi_def_cfa_offset 160
	stp	x29, x30, [sp, #144]            ; 16-byte Folded Spill
	add	x29, sp, #144
	.cfi_def_cfa w29, 16
	.cfi_offset w30, -8
	.cfi_offset w29, -16
	stur	w0, [x29, #-4]
	stur	x1, [x29, #-16]
	ldur	w0, [x29, #-4]
	ldur	x1, [x29, #-16]
	add	x8, sp, #8
	bl	__ZL10parse_argsiPPc
	ldr	w8, [sp, #124]
	subs	w8, w8, #0
	cset	w8, ne
	tbnz	w8, #0, LBB0_2
	b	LBB0_1
LBB0_1:
	ldr	w8, [sp, #120]
	subs	w8, w8, #0
	cset	w8, eq
	tbnz	w8, #0, LBB0_3
	b	LBB0_2
LBB0_2:
	ldur	x8, [x29, #-16]
	ldr	x0, [x8]
	bl	__ZL5usagePKc
	b	LBB0_3
LBB0_3:
	bl	__ZL4bailv
	mov	w0, #1
	mov	w1, #2
	bl	__ZL5min_iii
	mov	w0, #3
	mov	w1, #4
	bl	__ZL5max_iii
	mov	w8, #39322
	movk	w8, #16281, lsl #16
	fmov	s0, w8
	mov	w8, #39322
	movk	w8, #16473, lsl #16
	fmov	s1, w8
	bl	__ZL5min_rff
	mov	w8, #13107
	movk	w8, #16563, lsl #16
	fmov	s0, w8
	mov	w8, #39322
	movk	w8, #16633, lsl #16
	fmov	s1, w8
	bl	__ZL5max_rff
	mov	w0, #0
	.cfi_def_cfa wsp, 160
	ldp	x29, x30, [sp, #144]            ; 16-byte Folded Reload
	add	sp, sp, #160
	.cfi_def_cfa_offset 0
	.cfi_restore w30
	.cfi_restore w29
	ret
	.cfi_endproc
                                        ; -- End function
	.p2align	2                               ; -- Begin function _ZL10parse_argsiPPc
__ZL10parse_argsiPPc:                   ; @_ZL10parse_argsiPPc
	.cfi_startproc
; %bb.0:
	sub	sp, sp, #112
	.cfi_def_cfa_offset 112
	stp	x29, x30, [sp, #96]             ; 16-byte Folded Spill
	add	x29, sp, #96
	.cfi_def_cfa w29, 16
	.cfi_offset w30, -8
	.cfi_offset w29, -16
	str	x8, [sp, #32]                   ; 8-byte Folded Spill
	mov	x8, x0
	ldr	x0, [sp, #32]                   ; 8-byte Folded Reload
	adrp	x9, _optarg@GOTPAGE
	ldr	x9, [x9, _optarg@GOTPAGEOFF]
	str	x9, [sp, #40]                   ; 8-byte Folded Spill
	adrp	x9, ___stderrp@GOTPAGE
	ldr	x9, [x9, ___stderrp@GOTPAGEOFF]
	str	x9, [sp, #48]                   ; 8-byte Folded Spill
	stur	w8, [x29, #-4]
	stur	x1, [x29, #-16]
	ldur	x8, [x29, #-16]
	ldr	x8, [x8]
	stur	x8, [x29, #-24]
	bl	__ZN11cmdline_optC1Ev
	b	LBB1_1
LBB1_1:                                 ; =>This Inner Loop Header: Depth=1
	sub	x4, x29, #28
	stur	wzr, [x29, #-28]
	ldur	w0, [x29, #-4]
	ldur	x1, [x29, #-16]
	adrp	x2, l_.str@PAGE
	add	x2, x2, l_.str@PAGEOFF
	adrp	x3, __ZL12long_options@PAGE
	add	x3, x3, __ZL12long_options@PAGEOFF
	bl	_getopt_long
	stur	w0, [x29, #-32]
	ldur	w8, [x29, #-32]
	adds	w8, w8, #1
	cset	w8, ne
	tbnz	w8, #0, LBB1_3
	b	LBB1_2
LBB1_2:
	b	LBB1_45
LBB1_3:                                 ;   in Loop: Header=BB1_1 Depth=1
	ldur	w8, [x29, #-32]
	str	w8, [sp, #28]                   ; 4-byte Folded Spill
	subs	w8, w8, #0
	cset	w8, eq
	tbnz	w8, #0, LBB1_11
	b	LBB1_4
LBB1_4:                                 ;   in Loop: Header=BB1_1 Depth=1
	ldr	w8, [sp, #28]                   ; 4-byte Folded Reload
	subs	w8, w8, #97
	cset	w8, eq
	tbnz	w8, #0, LBB1_39
	b	LBB1_5
LBB1_5:                                 ;   in Loop: Header=BB1_1 Depth=1
	ldr	w8, [sp, #28]                   ; 4-byte Folded Reload
	subs	w8, w8, #98
	cset	w8, eq
	tbnz	w8, #0, LBB1_38
	b	LBB1_6
LBB1_6:                                 ;   in Loop: Header=BB1_1 Depth=1
	ldr	w8, [sp, #28]                   ; 4-byte Folded Reload
	subs	w8, w8, #100
	cset	w8, eq
	tbnz	w8, #0, LBB1_37
	b	LBB1_7
LBB1_7:                                 ;   in Loop: Header=BB1_1 Depth=1
	ldr	w8, [sp, #28]                   ; 4-byte Folded Reload
	subs	w8, w8, #104
	cset	w8, eq
	tbnz	w8, #0, LBB1_42
	b	LBB1_8
LBB1_8:                                 ;   in Loop: Header=BB1_1 Depth=1
	ldr	w8, [sp, #28]                   ; 4-byte Folded Reload
	subs	w8, w8, #108
	cset	w8, eq
	tbnz	w8, #0, LBB1_40
	b	LBB1_9
LBB1_9:                                 ;   in Loop: Header=BB1_1 Depth=1
	ldr	w8, [sp, #28]                   ; 4-byte Folded Reload
	subs	w8, w8, #109
	cset	w8, eq
	tbnz	w8, #0, LBB1_41
	b	LBB1_10
LBB1_10:                                ;   in Loop: Header=BB1_1 Depth=1
	ldr	w8, [sp, #28]                   ; 4-byte Folded Reload
	subs	w8, w8, #118
	cset	w8, eq
	tbnz	w8, #0, LBB1_36
	b	LBB1_43
LBB1_11:                                ;   in Loop: Header=BB1_1 Depth=1
	ldursw	x8, [x29, #-28]
	lsl	x9, x8, #5
	adrp	x8, __ZL12long_options@PAGE
	add	x8, x8, __ZL12long_options@PAGEOFF
	ldr	x8, [x8, x9]
	stur	x8, [x29, #-40]
	ldur	x0, [x29, #-40]
	adrp	x1, l_.str.1@PAGE
	add	x1, x1, l_.str.1@PAGEOFF
	bl	_strcmp
	subs	w8, w0, #0
	cset	w8, ne
	tbnz	w8, #0, LBB1_13
	b	LBB1_12
LBB1_12:                                ;   in Loop: Header=BB1_1 Depth=1
	ldr	x8, [sp, #40]                   ; 8-byte Folded Reload
	ldr	x0, [x8]
	bl	_atol
	ldr	x9, [sp, #32]                   ; 8-byte Folded Reload
	mov	x8, x0
	str	w8, [x9, #36]
	b	LBB1_35
LBB1_13:                                ;   in Loop: Header=BB1_1 Depth=1
	ldur	x0, [x29, #-40]
	adrp	x1, l_.str.2@PAGE
	add	x1, x1, l_.str.2@PAGEOFF
	bl	_strcmp
	subs	w8, w0, #0
	cset	w8, ne
	tbnz	w8, #0, LBB1_15
	b	LBB1_14
LBB1_14:                                ;   in Loop: Header=BB1_1 Depth=1
	ldr	x8, [sp, #40]                   ; 8-byte Folded Reload
	ldr	x0, [x8]
	bl	_atol
	ldr	x9, [sp, #32]                   ; 8-byte Folded Reload
	mov	x8, x0
	str	w8, [x9, #40]
	b	LBB1_34
LBB1_15:                                ;   in Loop: Header=BB1_1 Depth=1
	ldur	x0, [x29, #-40]
	adrp	x1, l_.str.3@PAGE
	add	x1, x1, l_.str.3@PAGEOFF
	bl	_strcmp
	subs	w8, w0, #0
	cset	w8, ne
	tbnz	w8, #0, LBB1_17
	b	LBB1_16
LBB1_16:                                ;   in Loop: Header=BB1_1 Depth=1
	ldr	x8, [sp, #40]                   ; 8-byte Folded Reload
	ldr	x0, [x8]
	bl	_atol
	ldr	x8, [sp, #32]                   ; 8-byte Folded Reload
	str	x0, [x8, #48]
	b	LBB1_33
LBB1_17:                                ;   in Loop: Header=BB1_1 Depth=1
	ldur	x0, [x29, #-40]
	adrp	x1, l_.str.4@PAGE
	add	x1, x1, l_.str.4@PAGEOFF
	bl	_strcmp
	subs	w8, w0, #0
	cset	w8, ne
	tbnz	w8, #0, LBB1_19
	b	LBB1_18
LBB1_18:                                ;   in Loop: Header=BB1_1 Depth=1
	ldr	x8, [sp, #40]                   ; 8-byte Folded Reload
	ldr	x0, [x8]
	bl	_atol
	ldr	x8, [sp, #32]                   ; 8-byte Folded Reload
	str	x0, [x8, #56]
	b	LBB1_32
LBB1_19:                                ;   in Loop: Header=BB1_1 Depth=1
	ldur	x0, [x29, #-40]
	adrp	x1, l_.str.5@PAGE
	add	x1, x1, l_.str.5@PAGEOFF
	bl	_strcmp
	subs	w8, w0, #0
	cset	w8, ne
	tbnz	w8, #0, LBB1_21
	b	LBB1_20
LBB1_20:                                ;   in Loop: Header=BB1_1 Depth=1
	ldr	x8, [sp, #40]                   ; 8-byte Folded Reload
	ldr	x0, [x8]
	bl	_atol
	ldr	x8, [sp, #32]                   ; 8-byte Folded Reload
	str	x0, [x8, #64]
	b	LBB1_31
LBB1_21:                                ;   in Loop: Header=BB1_1 Depth=1
	ldur	x0, [x29, #-40]
	adrp	x1, l_.str.6@PAGE
	add	x1, x1, l_.str.6@PAGEOFF
	bl	_strcmp
	subs	w8, w0, #0
	cset	w8, ne
	tbnz	w8, #0, LBB1_23
	b	LBB1_22
LBB1_22:                                ;   in Loop: Header=BB1_1 Depth=1
	ldr	x8, [sp, #40]                   ; 8-byte Folded Reload
	ldr	x0, [x8]
	bl	_atol
	ldr	x8, [sp, #32]                   ; 8-byte Folded Reload
	str	x0, [x8, #72]
	b	LBB1_30
LBB1_23:                                ;   in Loop: Header=BB1_1 Depth=1
	ldur	x0, [x29, #-40]
	adrp	x1, l_.str.7@PAGE
	add	x1, x1, l_.str.7@PAGEOFF
	bl	_strcmp
	subs	w8, w0, #0
	cset	w8, ne
	tbnz	w8, #0, LBB1_25
	b	LBB1_24
LBB1_24:                                ;   in Loop: Header=BB1_1 Depth=1
	ldr	x8, [sp, #40]                   ; 8-byte Folded Reload
	ldr	x0, [x8]
	bl	_atoi
	ldr	x8, [sp, #32]                   ; 8-byte Folded Reload
	str	w0, [x8, #80]
	b	LBB1_29
LBB1_25:                                ;   in Loop: Header=BB1_1 Depth=1
	ldur	x0, [x29, #-40]
	adrp	x1, l_.str.8@PAGE
	add	x1, x1, l_.str.8@PAGEOFF
	bl	_strcmp
	subs	w8, w0, #0
	cset	w8, ne
	tbnz	w8, #0, LBB1_27
	b	LBB1_26
LBB1_26:                                ;   in Loop: Header=BB1_1 Depth=1
	ldr	x8, [sp, #40]                   ; 8-byte Folded Reload
	ldr	x0, [x8]
	bl	_strdup
	ldr	x8, [sp, #32]                   ; 8-byte Folded Reload
	str	x0, [x8, #104]
	b	LBB1_28
LBB1_27:
	ldr	x8, [sp, #48]                   ; 8-byte Folded Reload
	ldr	x0, [x8]
	ldur	x8, [x29, #-40]
	mov	x9, sp
	adrp	x10, l_.str.10@PAGE
	add	x10, x10, l_.str.10@PAGEOFF
	str	x10, [x9]
	mov	x10, #297
	str	x10, [x9, #8]
	str	x8, [x9, #16]
	adrp	x1, l_.str.9@PAGE
	add	x1, x1, l_.str.9@PAGEOFF
	bl	_fprintf
	ldr	x9, [sp, #32]                   ; 8-byte Folded Reload
	mov	w8, #1
	str	w8, [x9, #116]
	b	LBB1_52
LBB1_28:                                ;   in Loop: Header=BB1_1 Depth=1
	b	LBB1_29
LBB1_29:                                ;   in Loop: Header=BB1_1 Depth=1
	b	LBB1_30
LBB1_30:                                ;   in Loop: Header=BB1_1 Depth=1
	b	LBB1_31
LBB1_31:                                ;   in Loop: Header=BB1_1 Depth=1
	b	LBB1_32
LBB1_32:                                ;   in Loop: Header=BB1_1 Depth=1
	b	LBB1_33
LBB1_33:                                ;   in Loop: Header=BB1_1 Depth=1
	b	LBB1_34
LBB1_34:                                ;   in Loop: Header=BB1_1 Depth=1
	b	LBB1_35
LBB1_35:                                ;   in Loop: Header=BB1_1 Depth=1
	b	LBB1_44
LBB1_36:                                ;   in Loop: Header=BB1_1 Depth=1
	ldr	x8, [sp, #40]                   ; 8-byte Folded Reload
	ldr	x0, [x8]
	bl	_atoi
	ldr	x8, [sp, #32]                   ; 8-byte Folded Reload
	str	w0, [x8]
	b	LBB1_44
LBB1_37:                                ;   in Loop: Header=BB1_1 Depth=1
	ldr	x8, [sp, #40]                   ; 8-byte Folded Reload
	ldr	x0, [x8]
	bl	_strdup
	ldr	x8, [sp, #32]                   ; 8-byte Folded Reload
	str	x0, [x8, #8]
	b	LBB1_44
LBB1_38:                                ;   in Loop: Header=BB1_1 Depth=1
	ldr	x8, [sp, #40]                   ; 8-byte Folded Reload
	ldr	x0, [x8]
	bl	_atoi
	ldr	x8, [sp, #32]                   ; 8-byte Folded Reload
	str	w0, [x8, #32]
	b	LBB1_44
LBB1_39:                                ;   in Loop: Header=BB1_1 Depth=1
	ldr	x8, [sp, #40]                   ; 8-byte Folded Reload
	ldr	x0, [x8]
	bl	_strdup
	ldr	x8, [sp, #32]                   ; 8-byte Folded Reload
	str	x0, [x8, #88]
	b	LBB1_44
LBB1_40:                                ;   in Loop: Header=BB1_1 Depth=1
	ldr	x8, [sp, #40]                   ; 8-byte Folded Reload
	ldr	x0, [x8]
	bl	_atof
	ldr	x8, [sp, #32]                   ; 8-byte Folded Reload
	fcvt	s0, d0
	str	s0, [x8, #16]
	b	LBB1_44
LBB1_41:                                ;   in Loop: Header=BB1_1 Depth=1
	ldr	x8, [sp, #40]                   ; 8-byte Folded Reload
	ldr	x0, [x8]
	bl	_atol
	ldr	x8, [sp, #32]                   ; 8-byte Folded Reload
	str	x0, [x8, #24]
	b	LBB1_44
LBB1_42:                                ;   in Loop: Header=BB1_1 Depth=1
	ldr	x9, [sp, #32]                   ; 8-byte Folded Reload
	mov	w8, #1
	str	w8, [x9, #112]
	b	LBB1_44
LBB1_43:
	ldur	x0, [x29, #-24]
	bl	__ZL5usagePKc
	ldr	x9, [sp, #32]                   ; 8-byte Folded Reload
	mov	w8, #1
	str	w8, [x9, #116]
	b	LBB1_52
LBB1_44:                                ;   in Loop: Header=BB1_1 Depth=1
	b	LBB1_1
LBB1_45:
	ldr	x8, [sp, #32]                   ; 8-byte Folded Reload
	ldr	w8, [x8, #32]
	subs	w8, w8, #64
	cset	w8, le
	tbnz	w8, #0, LBB1_47
	b	LBB1_46
LBB1_46:
	ldr	x8, [sp, #32]                   ; 8-byte Folded Reload
	ldr	x9, [sp, #48]                   ; 8-byte Folded Reload
	ldr	x0, [x9]
	ldr	w9, [x8, #32]
                                        ; implicit-def: $x8
	mov	x8, x9
	mov	x9, sp
	str	x8, [x9]
	mov	x8, #64
	str	x8, [x9, #8]
	adrp	x1, l_.str.11@PAGE
	add	x1, x1, l_.str.11@PAGEOFF
	bl	_fprintf
	ldr	x9, [sp, #32]                   ; 8-byte Folded Reload
	mov	w8, #1
	str	w8, [x9, #116]
	b	LBB1_52
LBB1_47:
	ldr	x8, [sp, #32]                   ; 8-byte Folded Reload
	ldr	x0, [x8, #88]
	bl	__ZL10parse_algoPKc
	ldr	x8, [sp, #32]                   ; 8-byte Folded Reload
	str	w0, [x8, #96]
	ldr	w8, [x8, #96]
	subs	w8, w8, #4
	cset	w8, ne
	tbnz	w8, #0, LBB1_49
	b	LBB1_48
LBB1_48:
	ldr	x8, [sp, #32]                   ; 8-byte Folded Reload
	ldr	x9, [sp, #48]                   ; 8-byte Folded Reload
	ldr	x0, [x9]
	ldr	x8, [x8, #88]
	mov	x9, sp
	str	x8, [x9]
	adrp	x1, l_.str.12@PAGE
	add	x1, x1, l_.str.12@PAGEOFF
	bl	_fprintf
	ldr	x9, [sp, #32]                   ; 8-byte Folded Reload
	mov	w8, #1
	str	w8, [x9, #116]
	b	LBB1_52
LBB1_49:
	ldr	x8, [sp, #32]                   ; 8-byte Folded Reload
	ldr	x0, [x8, #88]
	ldr	w1, [x8, #96]
	bl	__ZL12algo_is_cudaPKc6algo_t
	ldr	x8, [sp, #32]                   ; 8-byte Folded Reload
	str	w0, [x8, #100]
	ldr	w8, [x8, #100]
	subs	w8, w8, #0
	cset	w8, eq
	tbnz	w8, #0, LBB1_51
	b	LBB1_50
LBB1_50:
	ldr	x8, [sp, #48]                   ; 8-byte Folded Reload
	ldr	x0, [x8]
	adrp	x1, l_.str.13@PAGE
	add	x1, x1, l_.str.13@PAGEOFF
	bl	_fprintf
	ldr	x9, [sp, #32]                   ; 8-byte Folded Reload
	mov	w8, #1
	str	w8, [x9, #116]
	b	LBB1_52
LBB1_51:
	b	LBB1_52
LBB1_52:
	.cfi_def_cfa wsp, 112
	ldp	x29, x30, [sp, #96]             ; 16-byte Folded Reload
	add	sp, sp, #112
	.cfi_def_cfa_offset 0
	.cfi_restore w30
	.cfi_restore w29
	ret
	.cfi_endproc
                                        ; -- End function
	.p2align	2                               ; -- Begin function _ZL5usagePKc
__ZL5usagePKc:                          ; @_ZL5usagePKc
	.cfi_startproc
; %bb.0:
	sub	sp, sp, #288
	.cfi_def_cfa_offset 288
	stp	x28, x27, [sp, #256]            ; 16-byte Folded Spill
	stp	x29, x30, [sp, #272]            ; 16-byte Folded Spill
	add	x29, sp, #272
	.cfi_def_cfa w29, 16
	.cfi_offset w30, -8
	.cfi_offset w29, -16
	.cfi_offset w27, -24
	.cfi_offset w28, -32
	stur	x0, [x29, #-24]
	add	x0, sp, #128
	bl	__ZN11cmdline_optC1Ev
	adrp	x8, ___stderrp@GOTPAGE
	ldr	x8, [x8, ___stderrp@GOTPAGEOFF]
	ldr	x0, [x8]
	ldur	x5, [x29, #-24]
	ldr	x4, [sp, #136]
	ldr	x3, [sp, #152]
	ldr	w8, [sp, #160]
                                        ; implicit-def: $x2
	mov	x2, x8
	ldr	x1, [sp, #216]
	ldr	w8, [sp, #128]
                                        ; implicit-def: $x17
	mov	x17, x8
	ldr	s0, [sp, #144]
	fcvt	d0, s0
	ldr	w8, [sp, #164]
                                        ; implicit-def: $x16
	mov	x16, x8
	ldr	w8, [sp, #168]
                                        ; implicit-def: $x15
	mov	x15, x8
	ldr	x14, [sp, #176]
	ldr	x13, [sp, #192]
	ldr	x12, [sp, #200]
	ldr	x11, [sp, #184]
	ldr	w8, [sp, #208]
                                        ; implicit-def: $x10
	mov	x10, x8
	ldr	x8, [sp, #232]
	mov	x9, sp
	str	x5, [x9]
	str	x4, [x9, #8]
	str	x3, [x9, #16]
	str	x2, [x9, #24]
	str	x1, [x9, #32]
	str	x17, [x9, #40]
	str	d0, [x9, #48]
	str	x16, [x9, #56]
	str	x15, [x9, #64]
	str	x14, [x9, #72]
	str	x13, [x9, #80]
	str	x12, [x9, #88]
	str	x11, [x9, #96]
	str	x10, [x9, #104]
	str	x8, [x9, #112]
	adrp	x1, l_.str.28@PAGE
	add	x1, x1, l_.str.28@PAGEOFF
	bl	_fprintf
	mov	w0, #1
	bl	_exit
	.cfi_endproc
                                        ; -- End function
	.p2align	2                               ; -- Begin function _ZL4bailv
__ZL4bailv:                             ; @_ZL4bailv
	.cfi_startproc
; %bb.0:
	stp	x29, x30, [sp, #-16]!           ; 16-byte Folded Spill
	.cfi_def_cfa_offset 16
	mov	x29, sp
	.cfi_def_cfa w29, 16
	.cfi_offset w30, -8
	.cfi_offset w29, -16
	mov	w0, #1
	bl	_exit
	.cfi_endproc
                                        ; -- End function
	.p2align	2                               ; -- Begin function _ZL5min_iii
__ZL5min_iii:                           ; @_ZL5min_iii
	.cfi_startproc
; %bb.0:
	sub	sp, sp, #16
	.cfi_def_cfa_offset 16
	str	w0, [sp, #12]
	str	w1, [sp, #8]
	ldr	w8, [sp, #12]
	ldr	w9, [sp, #8]
	subs	w8, w8, w9
	cset	w8, ge
	tbnz	w8, #0, LBB4_2
	b	LBB4_1
LBB4_1:
	ldr	w8, [sp, #12]
	str	w8, [sp, #4]                    ; 4-byte Folded Spill
	b	LBB4_3
LBB4_2:
	ldr	w8, [sp, #8]
	str	w8, [sp, #4]                    ; 4-byte Folded Spill
	b	LBB4_3
LBB4_3:
	ldr	w0, [sp, #4]                    ; 4-byte Folded Reload
	add	sp, sp, #16
	.cfi_def_cfa_offset 0
	ret
	.cfi_endproc
                                        ; -- End function
	.p2align	2                               ; -- Begin function _ZL5max_iii
__ZL5max_iii:                           ; @_ZL5max_iii
	.cfi_startproc
; %bb.0:
	sub	sp, sp, #16
	.cfi_def_cfa_offset 16
	str	w0, [sp, #12]
	str	w1, [sp, #8]
	ldr	w8, [sp, #12]
	ldr	w9, [sp, #8]
	subs	w8, w8, w9
	cset	w8, ge
	tbnz	w8, #0, LBB5_2
	b	LBB5_1
LBB5_1:
	ldr	w8, [sp, #8]
	str	w8, [sp, #4]                    ; 4-byte Folded Spill
	b	LBB5_3
LBB5_2:
	ldr	w8, [sp, #12]
	str	w8, [sp, #4]                    ; 4-byte Folded Spill
	b	LBB5_3
LBB5_3:
	ldr	w0, [sp, #4]                    ; 4-byte Folded Reload
	add	sp, sp, #16
	.cfi_def_cfa_offset 0
	ret
	.cfi_endproc
                                        ; -- End function
	.p2align	2                               ; -- Begin function _ZL5min_rff
__ZL5min_rff:                           ; @_ZL5min_rff
	.cfi_startproc
; %bb.0:
	sub	sp, sp, #16
	.cfi_def_cfa_offset 16
	str	s0, [sp, #12]
	str	s1, [sp, #8]
	ldr	s0, [sp, #12]
	ldr	s1, [sp, #8]
	fcmp	s0, s1
	cset	w8, pl
	tbnz	w8, #0, LBB6_2
	b	LBB6_1
LBB6_1:
	ldr	w8, [sp, #12]
	str	w8, [sp, #4]                    ; 4-byte Folded Spill
	b	LBB6_3
LBB6_2:
	ldr	w8, [sp, #8]
	str	w8, [sp, #4]                    ; 4-byte Folded Spill
	b	LBB6_3
LBB6_3:
	ldr	w8, [sp, #4]                    ; 4-byte Folded Reload
	fmov	s0, w8
	add	sp, sp, #16
	.cfi_def_cfa_offset 0
	ret
	.cfi_endproc
                                        ; -- End function
	.p2align	2                               ; -- Begin function _ZL5max_rff
__ZL5max_rff:                           ; @_ZL5max_rff
	.cfi_startproc
; %bb.0:
	sub	sp, sp, #16
	.cfi_def_cfa_offset 16
	str	s0, [sp, #12]
	str	s1, [sp, #8]
	ldr	s0, [sp, #12]
	ldr	s1, [sp, #8]
	fcmp	s0, s1
	cset	w8, pl
	tbnz	w8, #0, LBB7_2
	b	LBB7_1
LBB7_1:
	ldr	w8, [sp, #8]
	str	w8, [sp, #4]                    ; 4-byte Folded Spill
	b	LBB7_3
LBB7_2:
	ldr	w8, [sp, #12]
	str	w8, [sp, #4]                    ; 4-byte Folded Spill
	b	LBB7_3
LBB7_3:
	ldr	w8, [sp, #4]                    ; 4-byte Folded Reload
	fmov	s0, w8
	add	sp, sp, #16
	.cfi_def_cfa_offset 0
	ret
	.cfi_endproc
                                        ; -- End function
	.globl	__ZN11cmdline_optC1Ev           ; -- Begin function _ZN11cmdline_optC1Ev
	.weak_def_can_be_hidden	__ZN11cmdline_optC1Ev
	.p2align	2
__ZN11cmdline_optC1Ev:                  ; @_ZN11cmdline_optC1Ev
	.cfi_startproc
; %bb.0:
	sub	sp, sp, #32
	.cfi_def_cfa_offset 32
	stp	x29, x30, [sp, #16]             ; 16-byte Folded Spill
	add	x29, sp, #16
	.cfi_def_cfa w29, 16
	.cfi_offset w30, -8
	.cfi_offset w29, -16
	str	x0, [sp, #8]
	ldr	x0, [sp, #8]
	str	x0, [sp]                        ; 8-byte Folded Spill
	bl	__ZN11cmdline_optC2Ev
	ldr	x0, [sp]                        ; 8-byte Folded Reload
	.cfi_def_cfa wsp, 32
	ldp	x29, x30, [sp, #16]             ; 16-byte Folded Reload
	add	sp, sp, #32
	.cfi_def_cfa_offset 0
	.cfi_restore w30
	.cfi_restore w29
	ret
	.cfi_endproc
                                        ; -- End function
	.p2align	2                               ; -- Begin function _ZL10parse_algoPKc
__ZL10parse_algoPKc:                    ; @_ZL10parse_algoPKc
	.cfi_startproc
; %bb.0:
	sub	sp, sp, #32
	.cfi_def_cfa_offset 32
	stp	x29, x30, [sp, #16]             ; 16-byte Folded Spill
	add	x29, sp, #16
	.cfi_def_cfa w29, 16
	.cfi_offset w30, -8
	.cfi_offset w29, -16
	str	x0, [sp]
	ldr	x0, [sp]
	adrp	x1, l_.str.15@PAGE
	add	x1, x1, l_.str.15@PAGEOFF
	bl	_strcmp
	subs	w8, w0, #0
	cset	w8, ne
	tbnz	w8, #0, LBB9_2
	b	LBB9_1
LBB9_1:
	stur	wzr, [x29, #-4]
	b	LBB9_9
LBB9_2:
	ldr	x0, [sp]
	adrp	x1, l_.str.24@PAGE
	add	x1, x1, l_.str.24@PAGEOFF
	bl	_strcmp
	subs	w8, w0, #0
	cset	w8, ne
	tbnz	w8, #0, LBB9_4
	b	LBB9_3
LBB9_3:
	mov	w8, #2
	stur	w8, [x29, #-4]
	b	LBB9_9
LBB9_4:
	ldr	x0, [sp]
	adrp	x1, l_.str.25@PAGE
	add	x1, x1, l_.str.25@PAGEOFF
	bl	_strcmp
	subs	w8, w0, #0
	cset	w8, ne
	tbnz	w8, #0, LBB9_6
	b	LBB9_5
LBB9_5:
	mov	w8, #3
	stur	w8, [x29, #-4]
	b	LBB9_9
LBB9_6:
	ldr	x0, [sp]
	adrp	x1, l_.str.26@PAGE
	add	x1, x1, l_.str.26@PAGEOFF
	bl	_strcmp
	subs	w8, w0, #0
	cset	w8, ne
	tbnz	w8, #0, LBB9_8
	b	LBB9_7
LBB9_7:
	mov	w8, #1
	stur	w8, [x29, #-4]
	b	LBB9_9
LBB9_8:
	mov	w8, #4
	stur	w8, [x29, #-4]
	b	LBB9_9
LBB9_9:
	ldur	w0, [x29, #-4]
	.cfi_def_cfa wsp, 32
	ldp	x29, x30, [sp, #16]             ; 16-byte Folded Reload
	add	sp, sp, #32
	.cfi_def_cfa_offset 0
	.cfi_restore w30
	.cfi_restore w29
	ret
	.cfi_endproc
                                        ; -- End function
	.p2align	2                               ; -- Begin function _ZL12algo_is_cudaPKc6algo_t
__ZL12algo_is_cudaPKc6algo_t:           ; @_ZL12algo_is_cudaPKc6algo_t
	.cfi_startproc
; %bb.0:
	sub	sp, sp, #48
	.cfi_def_cfa_offset 48
	stp	x29, x30, [sp, #32]             ; 16-byte Folded Spill
	add	x29, sp, #32
	.cfi_def_cfa w29, 16
	.cfi_offset w30, -8
	.cfi_offset w29, -16
	str	x0, [sp, #16]
	str	w1, [sp, #12]
	ldr	x0, [sp, #16]
	adrp	x1, l_.str.27@PAGE
	add	x1, x1, l_.str.27@PAGEOFF
	mov	x2, #4
	bl	_strncmp
	subs	w8, w0, #0
	cset	w8, ne
	tbnz	w8, #0, LBB10_2
	b	LBB10_1
LBB10_1:
	mov	w8, #1
	stur	w8, [x29, #-4]
	b	LBB10_3
LBB10_2:
	stur	wzr, [x29, #-4]
	b	LBB10_3
LBB10_3:
	ldur	w0, [x29, #-4]
	.cfi_def_cfa wsp, 48
	ldp	x29, x30, [sp, #32]             ; 16-byte Folded Reload
	add	sp, sp, #48
	.cfi_def_cfa_offset 0
	.cfi_restore w30
	.cfi_restore w29
	ret
	.cfi_endproc
                                        ; -- End function
	.globl	__ZN11cmdline_optC2Ev           ; -- Begin function _ZN11cmdline_optC2Ev
	.weak_def_can_be_hidden	__ZN11cmdline_optC2Ev
	.p2align	2
__ZN11cmdline_optC2Ev:                  ; @_ZN11cmdline_optC2Ev
	.cfi_startproc
; %bb.0:
	sub	sp, sp, #16
	.cfi_def_cfa_offset 16
	str	x0, [sp, #8]
	ldr	x0, [sp, #8]
	mov	w8, #1
	str	w8, [x0]
	adrp	x8, l_.str.14@PAGE
	add	x8, x8, l_.str.14@PAGEOFF
	str	x8, [x0, #8]
	fmov	s0, #1.00000000
	str	s0, [x0, #16]
	mov	x8, #14
	str	x8, [x0, #24]
	mov	w8, #64
	str	w8, [x0, #32]
	mov	w8, #-1
	str	w8, [x0, #36]
	str	w8, [x0, #40]
	mov	x8, #10
	str	x8, [x0, #48]
	mov	x8, #35675
	movk	x8, #29358, lsl #16
	movk	x8, #10635, lsl #32
	str	x8, [x0, #56]
	mov	x8, #29074
	movk	x8, #14568, lsl #16
	movk	x8, #13222, lsl #32
	str	x8, [x0, #64]
	mov	x8, #12217
	movk	x8, #59057, lsl #16
	movk	x8, #15806, lsl #32
	str	x8, [x0, #72]
	str	wzr, [x0, #80]
	adrp	x8, l_.str.15@PAGE
	add	x8, x8, l_.str.15@PAGEOFF
	str	x8, [x0, #88]
	str	wzr, [x0, #100]
	mov	w8, #4
	str	w8, [x0, #96]
	adrp	x8, l_.str.16@PAGE
	add	x8, x8, l_.str.16@PAGEOFF
	str	x8, [x0, #104]
	str	wzr, [x0, #112]
	str	wzr, [x0, #116]
	add	sp, sp, #16
	.cfi_def_cfa_offset 0
	ret
	.cfi_endproc
                                        ; -- End function
	.globl	__Z11tensor_mainiPPc            ; -- Begin function _Z11tensor_mainiPPc
	.p2align	2
__Z11tensor_mainiPPc:                   ; @_Z11tensor_mainiPPc
	.cfi_startproc
; %bb.0:
	stp	x28, x27, [sp, #-32]!           ; 16-byte Folded Spill
	.cfi_def_cfa_offset 32
	stp	x29, x30, [sp, #16]             ; 16-byte Folded Spill
	add	x29, sp, #16
	.cfi_def_cfa w29, 16
	.cfi_offset w30, -8
	.cfi_offset w29, -16
	.cfi_offset w27, -24
	.cfi_offset w28, -32
	sub	sp, sp, #9, lsl #12             ; =36864
	sub	sp, sp, #3520
	sub	x8, x29, #32
	add	x9, sp, #9, lsl #12             ; =36864
	add	x9, x9, #3212
	str	x9, [sp, #40]                   ; 8-byte Folded Spill
	str	w0, [x8, #12]
	str	x1, [x8]
	ldr	w0, [x8, #12]
	ldr	x1, [x8]
	sub	x8, x29, #152
	bl	__ZL10parse_argsiPPc
	ldr	x8, [sp, #40]                   ; 8-byte Folded Reload
	mov	w1, #2
	str	w1, [sp, #24]                   ; 4-byte Folded Spill
	str	w1, [x8, #168]
	str	w1, [x8, #164]
	sub	x0, x29, #172
	str	x0, [sp, #32]                   ; 8-byte Folded Spill
	fmov	s0, #1.00000000
	str	s0, [sp, #28]                   ; 4-byte Folded Spill
	bl	__ZN6tensorIfLi2ELi1ELi1ELi1EE10init_constEif
	ldr	w1, [sp, #24]                   ; 4-byte Folded Reload
	ldr	s0, [sp, #28]                   ; 4-byte Folded Reload
	sub	x0, x29, #192
	bl	__ZN6tensorIfLi2ELi2ELi1ELi1EE10init_constEif
	ldr	w1, [sp, #24]                   ; 4-byte Folded Reload
	ldr	s0, [sp, #28]                   ; 4-byte Folded Reload
	sub	x0, x29, #228
	bl	__ZN6tensorIfLi2ELi2ELi2ELi1EE10init_constEif
	ldr	w1, [sp, #24]                   ; 4-byte Folded Reload
	ldr	s0, [sp, #28]                   ; 4-byte Folded Reload
	add	x0, sp, #9, lsl #12             ; =36864
	add	x0, x0, #3240
	bl	__ZN6tensorIfLi2ELi2ELi2ELi2EE10init_constEif
	ldr	x1, [sp, #32]                   ; 8-byte Folded Reload
	mov	x0, x1
	bl	__ZN6tensorIfLi2ELi1ELi1ELi1EE3dotERS0_
	ldr	x8, [sp, #40]                   ; 8-byte Folded Reload
	fcvt	s0, d0
	str	s0, [x8, #24]
	ldr	s0, [x8, #24]
	fmov	s1, #2.00000000
	fcmp	s0, s1
	cset	w8, eq
	tbnz	w8, #0, LBB12_2
	b	LBB12_1
LBB12_1:
	adrp	x0, l___func__._Z11tensor_mainiPPc@PAGE
	add	x0, x0, l___func__._Z11tensor_mainiPPc@PAGEOFF
	adrp	x1, l_.str.29@PAGE
	add	x1, x1, l_.str.29@PAGEOFF
	mov	w2, #420
	adrp	x3, l_.str.30@PAGE
	add	x3, x3, l_.str.30@PAGEOFF
	bl	___assert_rtn
LBB12_2:
	b	LBB12_3
LBB12_3:
	sub	x1, x29, #192
	mov	x0, x1
	bl	__ZN6tensorIfLi2ELi2ELi1ELi1EE3dotERS0_
	ldr	x8, [sp, #40]                   ; 8-byte Folded Reload
	fcvt	s0, d0
	str	s0, [x8, #20]
	ldr	s0, [x8, #20]
	fmov	s1, #4.00000000
	fcmp	s0, s1
	cset	w8, eq
	tbnz	w8, #0, LBB12_5
	b	LBB12_4
LBB12_4:
	adrp	x0, l___func__._Z11tensor_mainiPPc@PAGE
	add	x0, x0, l___func__._Z11tensor_mainiPPc@PAGEOFF
	adrp	x1, l_.str.29@PAGE
	add	x1, x1, l_.str.29@PAGEOFF
	mov	w2, #422
	adrp	x3, l_.str.31@PAGE
	add	x3, x3, l_.str.31@PAGEOFF
	bl	___assert_rtn
LBB12_5:
	b	LBB12_6
LBB12_6:
	sub	x1, x29, #228
	mov	x0, x1
	bl	__ZN6tensorIfLi2ELi2ELi2ELi1EE3dotERS0_
	ldr	x8, [sp, #40]                   ; 8-byte Folded Reload
	fcvt	s0, d0
	str	s0, [x8, #16]
	ldr	s0, [x8, #16]
	fmov	s1, #8.00000000
	fcmp	s0, s1
	cset	w8, eq
	tbnz	w8, #0, LBB12_8
	b	LBB12_7
LBB12_7:
	adrp	x0, l___func__._Z11tensor_mainiPPc@PAGE
	add	x0, x0, l___func__._Z11tensor_mainiPPc@PAGEOFF
	adrp	x1, l_.str.29@PAGE
	add	x1, x1, l_.str.29@PAGEOFF
	mov	w2, #424
	adrp	x3, l_.str.32@PAGE
	add	x3, x3, l_.str.32@PAGEOFF
	bl	___assert_rtn
LBB12_8:
	b	LBB12_9
LBB12_9:
	add	x1, sp, #9, lsl #12             ; =36864
	add	x1, x1, #3240
	mov	x0, x1
	bl	__ZN6tensorIfLi2ELi2ELi2ELi2EE3dotERS0_
	ldr	x8, [sp, #40]                   ; 8-byte Folded Reload
	fcvt	s0, d0
	str	s0, [x8, #12]
	ldr	s0, [x8, #12]
	fmov	s1, #16.00000000
	fcmp	s0, s1
	cset	w8, eq
	tbnz	w8, #0, LBB12_11
	b	LBB12_10
LBB12_10:
	adrp	x0, l___func__._Z11tensor_mainiPPc@PAGE
	add	x0, x0, l___func__._Z11tensor_mainiPPc@PAGEOFF
	adrp	x1, l_.str.29@PAGE
	add	x1, x1, l_.str.29@PAGEOFF
	mov	w2, #426
	adrp	x3, l_.str.33@PAGE
	add	x3, x3, l_.str.33@PAGEOFF
	bl	___assert_rtn
LBB12_11:
	b	LBB12_12
LBB12_12:
	ldr	x9, [sp, #40]                   ; 8-byte Folded Reload
	mov	w8, #10000
	str	w8, [sp, #12]                   ; 4-byte Folded Spill
	str	w8, [x9, #8]
	mov	w8, #3
	str	w8, [x9, #4]
	mov	w8, #8
	str	w8, [x9]
	add	x0, sp, #9, lsl #12             ; =36864
	add	x0, x0, #3200
	str	x0, [sp, #16]                   ; 8-byte Folded Spill
	mov	x1, #12345
	bl	__ZN9rnd_gen_t4seedEy
	ldr	w1, [sp, #12]                   ; 4-byte Folded Reload
	ldr	x2, [sp, #16]                   ; 8-byte Folded Reload
	add	x0, sp, #60
	fmov	s0, #3.00000000
	fmov	s1, #8.00000000
	bl	__ZN6tensorIfLi10000ELi1ELi1ELi1EE14init_uniform_iEiR9rnd_gen_tff
	str	xzr, [sp, #48]
	b	LBB12_13
LBB12_13:                               ; =>This Inner Loop Header: Depth=1
	ldr	x8, [sp, #48]
	mov	x9, #10000
	subs	x8, x8, x9
	cset	w8, ge
	tbnz	w8, #0, LBB12_22
	b	LBB12_14
LBB12_14:                               ;   in Loop: Header=BB12_13 Depth=1
	ldr	x8, [sp, #48]
	mov	x1, x8
	add	x0, sp, #60
	mov	w4, #0
	mov	x2, x4
	mov	x3, x4
	bl	__ZN6tensorIfLi10000ELi1ELi1ELi1EEclEiiii
	ldr	s1, [x0]
	fmov	s0, #3.00000000
	fcmp	s0, s1
	cset	w8, ls
	tbnz	w8, #0, LBB12_16
	b	LBB12_15
LBB12_15:
	adrp	x0, l___func__._Z11tensor_mainiPPc@PAGE
	add	x0, x0, l___func__._Z11tensor_mainiPPc@PAGEOFF
	adrp	x1, l_.str.29@PAGE
	add	x1, x1, l_.str.29@PAGEOFF
	mov	w2, #436
	adrp	x3, l_.str.34@PAGE
	add	x3, x3, l_.str.34@PAGEOFF
	bl	___assert_rtn
LBB12_16:                               ;   in Loop: Header=BB12_13 Depth=1
	b	LBB12_17
LBB12_17:                               ;   in Loop: Header=BB12_13 Depth=1
	ldr	x8, [sp, #48]
	mov	x1, x8
	add	x0, sp, #60
	mov	w4, #0
	mov	x2, x4
	mov	x3, x4
	bl	__ZN6tensorIfLi10000ELi1ELi1ELi1EEclEiiii
	ldr	s0, [x0]
	fmov	s1, #8.00000000
	fcmp	s0, s1
	cset	w8, mi
	tbnz	w8, #0, LBB12_19
	b	LBB12_18
LBB12_18:
	adrp	x0, l___func__._Z11tensor_mainiPPc@PAGE
	add	x0, x0, l___func__._Z11tensor_mainiPPc@PAGEOFF
	adrp	x1, l_.str.29@PAGE
	add	x1, x1, l_.str.29@PAGEOFF
	mov	w2, #437
	adrp	x3, l_.str.35@PAGE
	add	x3, x3, l_.str.35@PAGEOFF
	bl	___assert_rtn
LBB12_19:                               ;   in Loop: Header=BB12_13 Depth=1
	b	LBB12_20
LBB12_20:                               ;   in Loop: Header=BB12_13 Depth=1
	b	LBB12_21
LBB12_21:                               ;   in Loop: Header=BB12_13 Depth=1
	ldr	x8, [sp, #48]
	add	x8, x8, #1
	str	x8, [sp, #48]
	b	LBB12_13
LBB12_22:
	mov	w0, #0
	add	sp, sp, #9, lsl #12             ; =36864
	add	sp, sp, #3520
	.cfi_def_cfa wsp, 32
	ldp	x29, x30, [sp, #16]             ; 16-byte Folded Reload
	ldp	x28, x27, [sp], #32             ; 16-byte Folded Reload
	.cfi_def_cfa_offset 0
	.cfi_restore w30
	.cfi_restore w29
	.cfi_restore w27
	.cfi_restore w28
	ret
	.cfi_endproc
                                        ; -- End function
	.globl	__ZN6tensorIfLi2ELi1ELi1ELi1EE10init_constEif ; -- Begin function _ZN6tensorIfLi2ELi1ELi1ELi1EE10init_constEif
	.weak_definition	__ZN6tensorIfLi2ELi1ELi1ELi1EE10init_constEif
	.p2align	2
__ZN6tensorIfLi2ELi1ELi1ELi1EE10init_constEif: ; @_ZN6tensorIfLi2ELi1ELi1ELi1EE10init_constEif
	.cfi_startproc
; %bb.0:
	sub	sp, sp, #80
	.cfi_def_cfa_offset 80
	stp	x29, x30, [sp, #64]             ; 16-byte Folded Spill
	add	x29, sp, #64
	.cfi_def_cfa w29, 16
	.cfi_offset w30, -8
	.cfi_offset w29, -16
	stur	x0, [x29, #-8]
	stur	w1, [x29, #-12]
	stur	s0, [x29, #-16]
	ldur	x0, [x29, #-8]
	str	x0, [sp, #16]                   ; 8-byte Folded Spill
	ldur	w1, [x29, #-12]
	bl	__ZN6tensorIfLi2ELi1ELi1ELi1EE6set_n0Ei
	ldr	x8, [sp, #16]                   ; 8-byte Folded Reload
	stur	x8, [x29, #-24]
	; InlineAsm Start
	; init_const begins N0=2 N1=1 N2=1 N3=1
	; InlineAsm End
	stur	wzr, [x29, #-28]
	b	LBB13_1
LBB13_1:                                ; =>This Loop Header: Depth=1
                                        ;     Child Loop BB13_3 Depth 2
                                        ;       Child Loop BB13_5 Depth 3
                                        ;         Child Loop BB13_7 Depth 4
	ldur	w8, [x29, #-28]
	ldur	w9, [x29, #-12]
	subs	w8, w8, w9
	cset	w8, ge
	tbnz	w8, #0, LBB13_16
	b	LBB13_2
LBB13_2:                                ;   in Loop: Header=BB13_1 Depth=1
	str	wzr, [sp, #32]
	b	LBB13_3
LBB13_3:                                ;   Parent Loop BB13_1 Depth=1
                                        ; =>  This Loop Header: Depth=2
                                        ;       Child Loop BB13_5 Depth 3
                                        ;         Child Loop BB13_7 Depth 4
	ldr	w8, [sp, #32]
	subs	w8, w8, #1
	cset	w8, ge
	tbnz	w8, #0, LBB13_14
	b	LBB13_4
LBB13_4:                                ;   in Loop: Header=BB13_3 Depth=2
	str	wzr, [sp, #28]
	b	LBB13_5
LBB13_5:                                ;   Parent Loop BB13_1 Depth=1
                                        ;     Parent Loop BB13_3 Depth=2
                                        ; =>    This Loop Header: Depth=3
                                        ;         Child Loop BB13_7 Depth 4
	ldr	w8, [sp, #28]
	subs	w8, w8, #1
	cset	w8, ge
	tbnz	w8, #0, LBB13_12
	b	LBB13_6
LBB13_6:                                ;   in Loop: Header=BB13_5 Depth=3
	str	wzr, [sp, #24]
	b	LBB13_7
LBB13_7:                                ;   Parent Loop BB13_1 Depth=1
                                        ;     Parent Loop BB13_3 Depth=2
                                        ;       Parent Loop BB13_5 Depth=3
                                        ; =>      This Inner Loop Header: Depth=4
	ldr	w8, [sp, #24]
	subs	w8, w8, #1
	cset	w8, ge
	tbnz	w8, #0, LBB13_10
	b	LBB13_8
LBB13_8:                                ;   in Loop: Header=BB13_7 Depth=4
	ldur	w8, [x29, #-16]
	str	w8, [sp, #12]                   ; 4-byte Folded Spill
	ldur	x0, [x29, #-24]
	ldur	w1, [x29, #-28]
	ldr	w2, [sp, #32]
	ldr	w3, [sp, #28]
	ldr	w4, [sp, #24]
	bl	__ZN6tensorIfLi2ELi1ELi1ELi1EEclEiiii
	ldr	w8, [sp, #12]                   ; 4-byte Folded Reload
	str	w8, [x0]
	b	LBB13_9
LBB13_9:                                ;   in Loop: Header=BB13_7 Depth=4
	ldr	w8, [sp, #24]
	add	w8, w8, #1
	str	w8, [sp, #24]
	b	LBB13_7
LBB13_10:                               ;   in Loop: Header=BB13_5 Depth=3
	b	LBB13_11
LBB13_11:                               ;   in Loop: Header=BB13_5 Depth=3
	ldr	w8, [sp, #28]
	add	w8, w8, #1
	str	w8, [sp, #28]
	b	LBB13_5
LBB13_12:                               ;   in Loop: Header=BB13_3 Depth=2
	b	LBB13_13
LBB13_13:                               ;   in Loop: Header=BB13_3 Depth=2
	ldr	w8, [sp, #32]
	add	w8, w8, #1
	str	w8, [sp, #32]
	b	LBB13_3
LBB13_14:                               ;   in Loop: Header=BB13_1 Depth=1
	b	LBB13_15
LBB13_15:                               ;   in Loop: Header=BB13_1 Depth=1
	ldur	w8, [x29, #-28]
	add	w8, w8, #1
	stur	w8, [x29, #-28]
	b	LBB13_1
LBB13_16:
	; InlineAsm Start
	; init_const ends N0=2 N1=1 N2=1 N3=1
	; InlineAsm End
	.cfi_def_cfa wsp, 80
	ldp	x29, x30, [sp, #64]             ; 16-byte Folded Reload
	add	sp, sp, #80
	.cfi_def_cfa_offset 0
	.cfi_restore w30
	.cfi_restore w29
	ret
	.cfi_endproc
                                        ; -- End function
	.globl	__ZN6tensorIfLi2ELi2ELi1ELi1EE10init_constEif ; -- Begin function _ZN6tensorIfLi2ELi2ELi1ELi1EE10init_constEif
	.weak_definition	__ZN6tensorIfLi2ELi2ELi1ELi1EE10init_constEif
	.p2align	2
__ZN6tensorIfLi2ELi2ELi1ELi1EE10init_constEif: ; @_ZN6tensorIfLi2ELi2ELi1ELi1EE10init_constEif
	.cfi_startproc
; %bb.0:
	sub	sp, sp, #80
	.cfi_def_cfa_offset 80
	stp	x29, x30, [sp, #64]             ; 16-byte Folded Spill
	add	x29, sp, #64
	.cfi_def_cfa w29, 16
	.cfi_offset w30, -8
	.cfi_offset w29, -16
	stur	x0, [x29, #-8]
	stur	w1, [x29, #-12]
	stur	s0, [x29, #-16]
	ldur	x0, [x29, #-8]
	str	x0, [sp, #16]                   ; 8-byte Folded Spill
	ldur	w1, [x29, #-12]
	bl	__ZN6tensorIfLi2ELi2ELi1ELi1EE6set_n0Ei
	ldr	x8, [sp, #16]                   ; 8-byte Folded Reload
	stur	x8, [x29, #-24]
	; InlineAsm Start
	; init_const begins N0=2 N1=2 N2=1 N3=1
	; InlineAsm End
	stur	wzr, [x29, #-28]
	b	LBB14_1
LBB14_1:                                ; =>This Loop Header: Depth=1
                                        ;     Child Loop BB14_3 Depth 2
                                        ;       Child Loop BB14_5 Depth 3
                                        ;         Child Loop BB14_7 Depth 4
	ldur	w8, [x29, #-28]
	ldur	w9, [x29, #-12]
	subs	w8, w8, w9
	cset	w8, ge
	tbnz	w8, #0, LBB14_16
	b	LBB14_2
LBB14_2:                                ;   in Loop: Header=BB14_1 Depth=1
	str	wzr, [sp, #32]
	b	LBB14_3
LBB14_3:                                ;   Parent Loop BB14_1 Depth=1
                                        ; =>  This Loop Header: Depth=2
                                        ;       Child Loop BB14_5 Depth 3
                                        ;         Child Loop BB14_7 Depth 4
	ldr	w8, [sp, #32]
	subs	w8, w8, #2
	cset	w8, ge
	tbnz	w8, #0, LBB14_14
	b	LBB14_4
LBB14_4:                                ;   in Loop: Header=BB14_3 Depth=2
	str	wzr, [sp, #28]
	b	LBB14_5
LBB14_5:                                ;   Parent Loop BB14_1 Depth=1
                                        ;     Parent Loop BB14_3 Depth=2
                                        ; =>    This Loop Header: Depth=3
                                        ;         Child Loop BB14_7 Depth 4
	ldr	w8, [sp, #28]
	subs	w8, w8, #1
	cset	w8, ge
	tbnz	w8, #0, LBB14_12
	b	LBB14_6
LBB14_6:                                ;   in Loop: Header=BB14_5 Depth=3
	str	wzr, [sp, #24]
	b	LBB14_7
LBB14_7:                                ;   Parent Loop BB14_1 Depth=1
                                        ;     Parent Loop BB14_3 Depth=2
                                        ;       Parent Loop BB14_5 Depth=3
                                        ; =>      This Inner Loop Header: Depth=4
	ldr	w8, [sp, #24]
	subs	w8, w8, #1
	cset	w8, ge
	tbnz	w8, #0, LBB14_10
	b	LBB14_8
LBB14_8:                                ;   in Loop: Header=BB14_7 Depth=4
	ldur	w8, [x29, #-16]
	str	w8, [sp, #12]                   ; 4-byte Folded Spill
	ldur	x0, [x29, #-24]
	ldur	w1, [x29, #-28]
	ldr	w2, [sp, #32]
	ldr	w3, [sp, #28]
	ldr	w4, [sp, #24]
	bl	__ZN6tensorIfLi2ELi2ELi1ELi1EEclEiiii
	ldr	w8, [sp, #12]                   ; 4-byte Folded Reload
	str	w8, [x0]
	b	LBB14_9
LBB14_9:                                ;   in Loop: Header=BB14_7 Depth=4
	ldr	w8, [sp, #24]
	add	w8, w8, #1
	str	w8, [sp, #24]
	b	LBB14_7
LBB14_10:                               ;   in Loop: Header=BB14_5 Depth=3
	b	LBB14_11
LBB14_11:                               ;   in Loop: Header=BB14_5 Depth=3
	ldr	w8, [sp, #28]
	add	w8, w8, #1
	str	w8, [sp, #28]
	b	LBB14_5
LBB14_12:                               ;   in Loop: Header=BB14_3 Depth=2
	b	LBB14_13
LBB14_13:                               ;   in Loop: Header=BB14_3 Depth=2
	ldr	w8, [sp, #32]
	add	w8, w8, #1
	str	w8, [sp, #32]
	b	LBB14_3
LBB14_14:                               ;   in Loop: Header=BB14_1 Depth=1
	b	LBB14_15
LBB14_15:                               ;   in Loop: Header=BB14_1 Depth=1
	ldur	w8, [x29, #-28]
	add	w8, w8, #1
	stur	w8, [x29, #-28]
	b	LBB14_1
LBB14_16:
	; InlineAsm Start
	; init_const ends N0=2 N1=2 N2=1 N3=1
	; InlineAsm End
	.cfi_def_cfa wsp, 80
	ldp	x29, x30, [sp, #64]             ; 16-byte Folded Reload
	add	sp, sp, #80
	.cfi_def_cfa_offset 0
	.cfi_restore w30
	.cfi_restore w29
	ret
	.cfi_endproc
                                        ; -- End function
	.globl	__ZN6tensorIfLi2ELi2ELi2ELi1EE10init_constEif ; -- Begin function _ZN6tensorIfLi2ELi2ELi2ELi1EE10init_constEif
	.weak_definition	__ZN6tensorIfLi2ELi2ELi2ELi1EE10init_constEif
	.p2align	2
__ZN6tensorIfLi2ELi2ELi2ELi1EE10init_constEif: ; @_ZN6tensorIfLi2ELi2ELi2ELi1EE10init_constEif
	.cfi_startproc
; %bb.0:
	sub	sp, sp, #80
	.cfi_def_cfa_offset 80
	stp	x29, x30, [sp, #64]             ; 16-byte Folded Spill
	add	x29, sp, #64
	.cfi_def_cfa w29, 16
	.cfi_offset w30, -8
	.cfi_offset w29, -16
	stur	x0, [x29, #-8]
	stur	w1, [x29, #-12]
	stur	s0, [x29, #-16]
	ldur	x0, [x29, #-8]
	str	x0, [sp, #16]                   ; 8-byte Folded Spill
	ldur	w1, [x29, #-12]
	bl	__ZN6tensorIfLi2ELi2ELi2ELi1EE6set_n0Ei
	ldr	x8, [sp, #16]                   ; 8-byte Folded Reload
	stur	x8, [x29, #-24]
	; InlineAsm Start
	; init_const begins N0=2 N1=2 N2=2 N3=1
	; InlineAsm End
	stur	wzr, [x29, #-28]
	b	LBB15_1
LBB15_1:                                ; =>This Loop Header: Depth=1
                                        ;     Child Loop BB15_3 Depth 2
                                        ;       Child Loop BB15_5 Depth 3
                                        ;         Child Loop BB15_7 Depth 4
	ldur	w8, [x29, #-28]
	ldur	w9, [x29, #-12]
	subs	w8, w8, w9
	cset	w8, ge
	tbnz	w8, #0, LBB15_16
	b	LBB15_2
LBB15_2:                                ;   in Loop: Header=BB15_1 Depth=1
	str	wzr, [sp, #32]
	b	LBB15_3
LBB15_3:                                ;   Parent Loop BB15_1 Depth=1
                                        ; =>  This Loop Header: Depth=2
                                        ;       Child Loop BB15_5 Depth 3
                                        ;         Child Loop BB15_7 Depth 4
	ldr	w8, [sp, #32]
	subs	w8, w8, #2
	cset	w8, ge
	tbnz	w8, #0, LBB15_14
	b	LBB15_4
LBB15_4:                                ;   in Loop: Header=BB15_3 Depth=2
	str	wzr, [sp, #28]
	b	LBB15_5
LBB15_5:                                ;   Parent Loop BB15_1 Depth=1
                                        ;     Parent Loop BB15_3 Depth=2
                                        ; =>    This Loop Header: Depth=3
                                        ;         Child Loop BB15_7 Depth 4
	ldr	w8, [sp, #28]
	subs	w8, w8, #2
	cset	w8, ge
	tbnz	w8, #0, LBB15_12
	b	LBB15_6
LBB15_6:                                ;   in Loop: Header=BB15_5 Depth=3
	str	wzr, [sp, #24]
	b	LBB15_7
LBB15_7:                                ;   Parent Loop BB15_1 Depth=1
                                        ;     Parent Loop BB15_3 Depth=2
                                        ;       Parent Loop BB15_5 Depth=3
                                        ; =>      This Inner Loop Header: Depth=4
	ldr	w8, [sp, #24]
	subs	w8, w8, #1
	cset	w8, ge
	tbnz	w8, #0, LBB15_10
	b	LBB15_8
LBB15_8:                                ;   in Loop: Header=BB15_7 Depth=4
	ldur	w8, [x29, #-16]
	str	w8, [sp, #12]                   ; 4-byte Folded Spill
	ldur	x0, [x29, #-24]
	ldur	w1, [x29, #-28]
	ldr	w2, [sp, #32]
	ldr	w3, [sp, #28]
	ldr	w4, [sp, #24]
	bl	__ZN6tensorIfLi2ELi2ELi2ELi1EEclEiiii
	ldr	w8, [sp, #12]                   ; 4-byte Folded Reload
	str	w8, [x0]
	b	LBB15_9
LBB15_9:                                ;   in Loop: Header=BB15_7 Depth=4
	ldr	w8, [sp, #24]
	add	w8, w8, #1
	str	w8, [sp, #24]
	b	LBB15_7
LBB15_10:                               ;   in Loop: Header=BB15_5 Depth=3
	b	LBB15_11
LBB15_11:                               ;   in Loop: Header=BB15_5 Depth=3
	ldr	w8, [sp, #28]
	add	w8, w8, #1
	str	w8, [sp, #28]
	b	LBB15_5
LBB15_12:                               ;   in Loop: Header=BB15_3 Depth=2
	b	LBB15_13
LBB15_13:                               ;   in Loop: Header=BB15_3 Depth=2
	ldr	w8, [sp, #32]
	add	w8, w8, #1
	str	w8, [sp, #32]
	b	LBB15_3
LBB15_14:                               ;   in Loop: Header=BB15_1 Depth=1
	b	LBB15_15
LBB15_15:                               ;   in Loop: Header=BB15_1 Depth=1
	ldur	w8, [x29, #-28]
	add	w8, w8, #1
	stur	w8, [x29, #-28]
	b	LBB15_1
LBB15_16:
	; InlineAsm Start
	; init_const ends N0=2 N1=2 N2=2 N3=1
	; InlineAsm End
	.cfi_def_cfa wsp, 80
	ldp	x29, x30, [sp, #64]             ; 16-byte Folded Reload
	add	sp, sp, #80
	.cfi_def_cfa_offset 0
	.cfi_restore w30
	.cfi_restore w29
	ret
	.cfi_endproc
                                        ; -- End function
	.globl	__ZN6tensorIfLi2ELi2ELi2ELi2EE10init_constEif ; -- Begin function _ZN6tensorIfLi2ELi2ELi2ELi2EE10init_constEif
	.weak_definition	__ZN6tensorIfLi2ELi2ELi2ELi2EE10init_constEif
	.p2align	2
__ZN6tensorIfLi2ELi2ELi2ELi2EE10init_constEif: ; @_ZN6tensorIfLi2ELi2ELi2ELi2EE10init_constEif
	.cfi_startproc
; %bb.0:
	sub	sp, sp, #80
	.cfi_def_cfa_offset 80
	stp	x29, x30, [sp, #64]             ; 16-byte Folded Spill
	add	x29, sp, #64
	.cfi_def_cfa w29, 16
	.cfi_offset w30, -8
	.cfi_offset w29, -16
	stur	x0, [x29, #-8]
	stur	w1, [x29, #-12]
	stur	s0, [x29, #-16]
	ldur	x0, [x29, #-8]
	str	x0, [sp, #16]                   ; 8-byte Folded Spill
	ldur	w1, [x29, #-12]
	bl	__ZN6tensorIfLi2ELi2ELi2ELi2EE6set_n0Ei
	ldr	x8, [sp, #16]                   ; 8-byte Folded Reload
	stur	x8, [x29, #-24]
	; InlineAsm Start
	; init_const begins N0=2 N1=2 N2=2 N3=2
	; InlineAsm End
	stur	wzr, [x29, #-28]
	b	LBB16_1
LBB16_1:                                ; =>This Loop Header: Depth=1
                                        ;     Child Loop BB16_3 Depth 2
                                        ;       Child Loop BB16_5 Depth 3
                                        ;         Child Loop BB16_7 Depth 4
	ldur	w8, [x29, #-28]
	ldur	w9, [x29, #-12]
	subs	w8, w8, w9
	cset	w8, ge
	tbnz	w8, #0, LBB16_16
	b	LBB16_2
LBB16_2:                                ;   in Loop: Header=BB16_1 Depth=1
	str	wzr, [sp, #32]
	b	LBB16_3
LBB16_3:                                ;   Parent Loop BB16_1 Depth=1
                                        ; =>  This Loop Header: Depth=2
                                        ;       Child Loop BB16_5 Depth 3
                                        ;         Child Loop BB16_7 Depth 4
	ldr	w8, [sp, #32]
	subs	w8, w8, #2
	cset	w8, ge
	tbnz	w8, #0, LBB16_14
	b	LBB16_4
LBB16_4:                                ;   in Loop: Header=BB16_3 Depth=2
	str	wzr, [sp, #28]
	b	LBB16_5
LBB16_5:                                ;   Parent Loop BB16_1 Depth=1
                                        ;     Parent Loop BB16_3 Depth=2
                                        ; =>    This Loop Header: Depth=3
                                        ;         Child Loop BB16_7 Depth 4
	ldr	w8, [sp, #28]
	subs	w8, w8, #2
	cset	w8, ge
	tbnz	w8, #0, LBB16_12
	b	LBB16_6
LBB16_6:                                ;   in Loop: Header=BB16_5 Depth=3
	str	wzr, [sp, #24]
	b	LBB16_7
LBB16_7:                                ;   Parent Loop BB16_1 Depth=1
                                        ;     Parent Loop BB16_3 Depth=2
                                        ;       Parent Loop BB16_5 Depth=3
                                        ; =>      This Inner Loop Header: Depth=4
	ldr	w8, [sp, #24]
	subs	w8, w8, #2
	cset	w8, ge
	tbnz	w8, #0, LBB16_10
	b	LBB16_8
LBB16_8:                                ;   in Loop: Header=BB16_7 Depth=4
	ldur	w8, [x29, #-16]
	str	w8, [sp, #12]                   ; 4-byte Folded Spill
	ldur	x0, [x29, #-24]
	ldur	w1, [x29, #-28]
	ldr	w2, [sp, #32]
	ldr	w3, [sp, #28]
	ldr	w4, [sp, #24]
	bl	__ZN6tensorIfLi2ELi2ELi2ELi2EEclEiiii
	ldr	w8, [sp, #12]                   ; 4-byte Folded Reload
	str	w8, [x0]
	b	LBB16_9
LBB16_9:                                ;   in Loop: Header=BB16_7 Depth=4
	ldr	w8, [sp, #24]
	add	w8, w8, #1
	str	w8, [sp, #24]
	b	LBB16_7
LBB16_10:                               ;   in Loop: Header=BB16_5 Depth=3
	b	LBB16_11
LBB16_11:                               ;   in Loop: Header=BB16_5 Depth=3
	ldr	w8, [sp, #28]
	add	w8, w8, #1
	str	w8, [sp, #28]
	b	LBB16_5
LBB16_12:                               ;   in Loop: Header=BB16_3 Depth=2
	b	LBB16_13
LBB16_13:                               ;   in Loop: Header=BB16_3 Depth=2
	ldr	w8, [sp, #32]
	add	w8, w8, #1
	str	w8, [sp, #32]
	b	LBB16_3
LBB16_14:                               ;   in Loop: Header=BB16_1 Depth=1
	b	LBB16_15
LBB16_15:                               ;   in Loop: Header=BB16_1 Depth=1
	ldur	w8, [x29, #-28]
	add	w8, w8, #1
	stur	w8, [x29, #-28]
	b	LBB16_1
LBB16_16:
	; InlineAsm Start
	; init_const ends N0=2 N1=2 N2=2 N3=2
	; InlineAsm End
	.cfi_def_cfa wsp, 80
	ldp	x29, x30, [sp, #64]             ; 16-byte Folded Reload
	add	sp, sp, #80
	.cfi_def_cfa_offset 0
	.cfi_restore w30
	.cfi_restore w29
	ret
	.cfi_endproc
                                        ; -- End function
	.globl	__ZN6tensorIfLi2ELi1ELi1ELi1EE3dotERS0_ ; -- Begin function _ZN6tensorIfLi2ELi1ELi1ELi1EE3dotERS0_
	.weak_definition	__ZN6tensorIfLi2ELi1ELi1ELi1EE3dotERS0_
	.p2align	2
__ZN6tensorIfLi2ELi1ELi1ELi1EE3dotERS0_: ; @_ZN6tensorIfLi2ELi1ELi1ELi1EE3dotERS0_
	.cfi_startproc
; %bb.0:
	sub	sp, sp, #128
	.cfi_def_cfa_offset 128
	stp	x29, x30, [sp, #112]            ; 16-byte Folded Spill
	add	x29, sp, #112
	.cfi_def_cfa w29, 16
	.cfi_offset w30, -8
	.cfi_offset w29, -16
	stur	x0, [x29, #-8]
	stur	x1, [x29, #-16]
	ldur	x8, [x29, #-8]
	str	x8, [sp, #16]                   ; 8-byte Folded Spill
	stur	x8, [x29, #-24]
	ldur	x8, [x29, #-24]
	ldr	w8, [x8]
	ldur	x9, [x29, #-16]
	ldr	w9, [x9]
	subs	w8, w8, w9
	cset	w8, eq
	tbnz	w8, #0, LBB17_2
	b	LBB17_1
LBB17_1:
	adrp	x0, l___func__._ZN6tensorIfLi2ELi1ELi1ELi1EE3dotERS0_@PAGE
	add	x0, x0, l___func__._ZN6tensorIfLi2ELi1ELi1ELi1EE3dotERS0_@PAGEOFF
	adrp	x1, l_.str.29@PAGE
	add	x1, x1, l_.str.29@PAGEOFF
	mov	w2, #352
	adrp	x3, l_.str.37@PAGE
	add	x3, x3, l_.str.37@PAGEOFF
	bl	___assert_rtn
LBB17_2:
	b	LBB17_3
LBB17_3:
	movi	d0, #0000000000000000
	stur	d0, [x29, #-32]
	stur	wzr, [x29, #-36]
	b	LBB17_4
LBB17_4:                                ; =>This Loop Header: Depth=1
                                        ;     Child Loop BB17_6 Depth 2
                                        ;       Child Loop BB17_8 Depth 3
                                        ;         Child Loop BB17_10 Depth 4
	ldr	x9, [sp, #16]                   ; 8-byte Folded Reload
	ldur	w8, [x29, #-36]
	ldr	w9, [x9]
	subs	w8, w8, w9
	cset	w8, ge
	tbnz	w8, #0, LBB17_19
	b	LBB17_5
LBB17_5:                                ;   in Loop: Header=BB17_4 Depth=1
	movi	d0, #0000000000000000
	stur	d0, [x29, #-48]
	stur	wzr, [x29, #-52]
	b	LBB17_6
LBB17_6:                                ;   Parent Loop BB17_4 Depth=1
                                        ; =>  This Loop Header: Depth=2
                                        ;       Child Loop BB17_8 Depth 3
                                        ;         Child Loop BB17_10 Depth 4
	ldur	w8, [x29, #-52]
	subs	w8, w8, #1
	cset	w8, ge
	tbnz	w8, #0, LBB17_17
	b	LBB17_7
LBB17_7:                                ;   in Loop: Header=BB17_6 Depth=2
	movi	d0, #0000000000000000
	str	d0, [sp, #48]
	str	wzr, [sp, #44]
	b	LBB17_8
LBB17_8:                                ;   Parent Loop BB17_4 Depth=1
                                        ;     Parent Loop BB17_6 Depth=2
                                        ; =>    This Loop Header: Depth=3
                                        ;         Child Loop BB17_10 Depth 4
	ldr	w8, [sp, #44]
	subs	w8, w8, #1
	cset	w8, ge
	tbnz	w8, #0, LBB17_15
	b	LBB17_9
LBB17_9:                                ;   in Loop: Header=BB17_8 Depth=3
	movi	d0, #0000000000000000
	str	d0, [sp, #32]
	str	wzr, [sp, #28]
	b	LBB17_10
LBB17_10:                               ;   Parent Loop BB17_4 Depth=1
                                        ;     Parent Loop BB17_6 Depth=2
                                        ;       Parent Loop BB17_8 Depth=3
                                        ; =>      This Inner Loop Header: Depth=4
	ldr	w8, [sp, #28]
	subs	w8, w8, #1
	cset	w8, ge
	tbnz	w8, #0, LBB17_13
	b	LBB17_11
LBB17_11:                               ;   in Loop: Header=BB17_10 Depth=4
	ldur	x0, [x29, #-24]
	ldur	w1, [x29, #-36]
	ldur	w2, [x29, #-52]
	ldr	w3, [sp, #44]
	ldr	w4, [sp, #28]
	bl	__ZN6tensorIfLi2ELi1ELi1ELi1EEclEiiii
	ldr	s0, [x0]
	str	s0, [sp, #12]                   ; 4-byte Folded Spill
	ldur	x0, [x29, #-16]
	ldur	w1, [x29, #-36]
	ldur	w2, [x29, #-52]
	ldr	w3, [sp, #44]
	ldr	w4, [sp, #28]
	bl	__ZN6tensorIfLi2ELi1ELi1ELi1EEclEiiii
	ldr	s0, [sp, #12]                   ; 4-byte Folded Reload
	ldr	s1, [x0]
	fmul	s0, s0, s1
	fcvt	d1, s0
	ldr	d0, [sp, #32]
	fadd	d0, d0, d1
	str	d0, [sp, #32]
	b	LBB17_12
LBB17_12:                               ;   in Loop: Header=BB17_10 Depth=4
	ldr	w8, [sp, #28]
	add	w8, w8, #1
	str	w8, [sp, #28]
	b	LBB17_10
LBB17_13:                               ;   in Loop: Header=BB17_8 Depth=3
	ldr	d1, [sp, #32]
	ldr	d0, [sp, #48]
	fadd	d0, d0, d1
	str	d0, [sp, #48]
	b	LBB17_14
LBB17_14:                               ;   in Loop: Header=BB17_8 Depth=3
	ldr	w8, [sp, #44]
	add	w8, w8, #1
	str	w8, [sp, #44]
	b	LBB17_8
LBB17_15:                               ;   in Loop: Header=BB17_6 Depth=2
	ldr	d1, [sp, #48]
	ldur	d0, [x29, #-48]
	fadd	d0, d0, d1
	stur	d0, [x29, #-48]
	b	LBB17_16
LBB17_16:                               ;   in Loop: Header=BB17_6 Depth=2
	ldur	w8, [x29, #-52]
	add	w8, w8, #1
	stur	w8, [x29, #-52]
	b	LBB17_6
LBB17_17:                               ;   in Loop: Header=BB17_4 Depth=1
	ldur	d1, [x29, #-48]
	ldur	d0, [x29, #-32]
	fadd	d0, d0, d1
	stur	d0, [x29, #-32]
	b	LBB17_18
LBB17_18:                               ;   in Loop: Header=BB17_4 Depth=1
	ldur	w8, [x29, #-36]
	add	w8, w8, #1
	stur	w8, [x29, #-36]
	b	LBB17_4
LBB17_19:
	ldur	d0, [x29, #-32]
	.cfi_def_cfa wsp, 128
	ldp	x29, x30, [sp, #112]            ; 16-byte Folded Reload
	add	sp, sp, #128
	.cfi_def_cfa_offset 0
	.cfi_restore w30
	.cfi_restore w29
	ret
	.cfi_endproc
                                        ; -- End function
	.globl	__ZN6tensorIfLi2ELi2ELi1ELi1EE3dotERS0_ ; -- Begin function _ZN6tensorIfLi2ELi2ELi1ELi1EE3dotERS0_
	.weak_definition	__ZN6tensorIfLi2ELi2ELi1ELi1EE3dotERS0_
	.p2align	2
__ZN6tensorIfLi2ELi2ELi1ELi1EE3dotERS0_: ; @_ZN6tensorIfLi2ELi2ELi1ELi1EE3dotERS0_
	.cfi_startproc
; %bb.0:
	sub	sp, sp, #128
	.cfi_def_cfa_offset 128
	stp	x29, x30, [sp, #112]            ; 16-byte Folded Spill
	add	x29, sp, #112
	.cfi_def_cfa w29, 16
	.cfi_offset w30, -8
	.cfi_offset w29, -16
	stur	x0, [x29, #-8]
	stur	x1, [x29, #-16]
	ldur	x8, [x29, #-8]
	str	x8, [sp, #16]                   ; 8-byte Folded Spill
	stur	x8, [x29, #-24]
	ldur	x8, [x29, #-24]
	ldr	w8, [x8]
	ldur	x9, [x29, #-16]
	ldr	w9, [x9]
	subs	w8, w8, w9
	cset	w8, eq
	tbnz	w8, #0, LBB18_2
	b	LBB18_1
LBB18_1:
	adrp	x0, l___func__._ZN6tensorIfLi2ELi1ELi1ELi1EE3dotERS0_@PAGE
	add	x0, x0, l___func__._ZN6tensorIfLi2ELi1ELi1ELi1EE3dotERS0_@PAGEOFF
	adrp	x1, l_.str.29@PAGE
	add	x1, x1, l_.str.29@PAGEOFF
	mov	w2, #352
	adrp	x3, l_.str.37@PAGE
	add	x3, x3, l_.str.37@PAGEOFF
	bl	___assert_rtn
LBB18_2:
	b	LBB18_3
LBB18_3:
	movi	d0, #0000000000000000
	stur	d0, [x29, #-32]
	stur	wzr, [x29, #-36]
	b	LBB18_4
LBB18_4:                                ; =>This Loop Header: Depth=1
                                        ;     Child Loop BB18_6 Depth 2
                                        ;       Child Loop BB18_8 Depth 3
                                        ;         Child Loop BB18_10 Depth 4
	ldr	x9, [sp, #16]                   ; 8-byte Folded Reload
	ldur	w8, [x29, #-36]
	ldr	w9, [x9]
	subs	w8, w8, w9
	cset	w8, ge
	tbnz	w8, #0, LBB18_19
	b	LBB18_5
LBB18_5:                                ;   in Loop: Header=BB18_4 Depth=1
	movi	d0, #0000000000000000
	stur	d0, [x29, #-48]
	stur	wzr, [x29, #-52]
	b	LBB18_6
LBB18_6:                                ;   Parent Loop BB18_4 Depth=1
                                        ; =>  This Loop Header: Depth=2
                                        ;       Child Loop BB18_8 Depth 3
                                        ;         Child Loop BB18_10 Depth 4
	ldur	w8, [x29, #-52]
	subs	w8, w8, #2
	cset	w8, ge
	tbnz	w8, #0, LBB18_17
	b	LBB18_7
LBB18_7:                                ;   in Loop: Header=BB18_6 Depth=2
	movi	d0, #0000000000000000
	str	d0, [sp, #48]
	str	wzr, [sp, #44]
	b	LBB18_8
LBB18_8:                                ;   Parent Loop BB18_4 Depth=1
                                        ;     Parent Loop BB18_6 Depth=2
                                        ; =>    This Loop Header: Depth=3
                                        ;         Child Loop BB18_10 Depth 4
	ldr	w8, [sp, #44]
	subs	w8, w8, #1
	cset	w8, ge
	tbnz	w8, #0, LBB18_15
	b	LBB18_9
LBB18_9:                                ;   in Loop: Header=BB18_8 Depth=3
	movi	d0, #0000000000000000
	str	d0, [sp, #32]
	str	wzr, [sp, #28]
	b	LBB18_10
LBB18_10:                               ;   Parent Loop BB18_4 Depth=1
                                        ;     Parent Loop BB18_6 Depth=2
                                        ;       Parent Loop BB18_8 Depth=3
                                        ; =>      This Inner Loop Header: Depth=4
	ldr	w8, [sp, #28]
	subs	w8, w8, #1
	cset	w8, ge
	tbnz	w8, #0, LBB18_13
	b	LBB18_11
LBB18_11:                               ;   in Loop: Header=BB18_10 Depth=4
	ldur	x0, [x29, #-24]
	ldur	w1, [x29, #-36]
	ldur	w2, [x29, #-52]
	ldr	w3, [sp, #44]
	ldr	w4, [sp, #28]
	bl	__ZN6tensorIfLi2ELi2ELi1ELi1EEclEiiii
	ldr	s0, [x0]
	str	s0, [sp, #12]                   ; 4-byte Folded Spill
	ldur	x0, [x29, #-16]
	ldur	w1, [x29, #-36]
	ldur	w2, [x29, #-52]
	ldr	w3, [sp, #44]
	ldr	w4, [sp, #28]
	bl	__ZN6tensorIfLi2ELi2ELi1ELi1EEclEiiii
	ldr	s0, [sp, #12]                   ; 4-byte Folded Reload
	ldr	s1, [x0]
	fmul	s0, s0, s1
	fcvt	d1, s0
	ldr	d0, [sp, #32]
	fadd	d0, d0, d1
	str	d0, [sp, #32]
	b	LBB18_12
LBB18_12:                               ;   in Loop: Header=BB18_10 Depth=4
	ldr	w8, [sp, #28]
	add	w8, w8, #1
	str	w8, [sp, #28]
	b	LBB18_10
LBB18_13:                               ;   in Loop: Header=BB18_8 Depth=3
	ldr	d1, [sp, #32]
	ldr	d0, [sp, #48]
	fadd	d0, d0, d1
	str	d0, [sp, #48]
	b	LBB18_14
LBB18_14:                               ;   in Loop: Header=BB18_8 Depth=3
	ldr	w8, [sp, #44]
	add	w8, w8, #1
	str	w8, [sp, #44]
	b	LBB18_8
LBB18_15:                               ;   in Loop: Header=BB18_6 Depth=2
	ldr	d1, [sp, #48]
	ldur	d0, [x29, #-48]
	fadd	d0, d0, d1
	stur	d0, [x29, #-48]
	b	LBB18_16
LBB18_16:                               ;   in Loop: Header=BB18_6 Depth=2
	ldur	w8, [x29, #-52]
	add	w8, w8, #1
	stur	w8, [x29, #-52]
	b	LBB18_6
LBB18_17:                               ;   in Loop: Header=BB18_4 Depth=1
	ldur	d1, [x29, #-48]
	ldur	d0, [x29, #-32]
	fadd	d0, d0, d1
	stur	d0, [x29, #-32]
	b	LBB18_18
LBB18_18:                               ;   in Loop: Header=BB18_4 Depth=1
	ldur	w8, [x29, #-36]
	add	w8, w8, #1
	stur	w8, [x29, #-36]
	b	LBB18_4
LBB18_19:
	ldur	d0, [x29, #-32]
	.cfi_def_cfa wsp, 128
	ldp	x29, x30, [sp, #112]            ; 16-byte Folded Reload
	add	sp, sp, #128
	.cfi_def_cfa_offset 0
	.cfi_restore w30
	.cfi_restore w29
	ret
	.cfi_endproc
                                        ; -- End function
	.globl	__ZN6tensorIfLi2ELi2ELi2ELi1EE3dotERS0_ ; -- Begin function _ZN6tensorIfLi2ELi2ELi2ELi1EE3dotERS0_
	.weak_definition	__ZN6tensorIfLi2ELi2ELi2ELi1EE3dotERS0_
	.p2align	2
__ZN6tensorIfLi2ELi2ELi2ELi1EE3dotERS0_: ; @_ZN6tensorIfLi2ELi2ELi2ELi1EE3dotERS0_
	.cfi_startproc
; %bb.0:
	sub	sp, sp, #128
	.cfi_def_cfa_offset 128
	stp	x29, x30, [sp, #112]            ; 16-byte Folded Spill
	add	x29, sp, #112
	.cfi_def_cfa w29, 16
	.cfi_offset w30, -8
	.cfi_offset w29, -16
	stur	x0, [x29, #-8]
	stur	x1, [x29, #-16]
	ldur	x8, [x29, #-8]
	str	x8, [sp, #16]                   ; 8-byte Folded Spill
	stur	x8, [x29, #-24]
	ldur	x8, [x29, #-24]
	ldr	w8, [x8]
	ldur	x9, [x29, #-16]
	ldr	w9, [x9]
	subs	w8, w8, w9
	cset	w8, eq
	tbnz	w8, #0, LBB19_2
	b	LBB19_1
LBB19_1:
	adrp	x0, l___func__._ZN6tensorIfLi2ELi1ELi1ELi1EE3dotERS0_@PAGE
	add	x0, x0, l___func__._ZN6tensorIfLi2ELi1ELi1ELi1EE3dotERS0_@PAGEOFF
	adrp	x1, l_.str.29@PAGE
	add	x1, x1, l_.str.29@PAGEOFF
	mov	w2, #352
	adrp	x3, l_.str.37@PAGE
	add	x3, x3, l_.str.37@PAGEOFF
	bl	___assert_rtn
LBB19_2:
	b	LBB19_3
LBB19_3:
	movi	d0, #0000000000000000
	stur	d0, [x29, #-32]
	stur	wzr, [x29, #-36]
	b	LBB19_4
LBB19_4:                                ; =>This Loop Header: Depth=1
                                        ;     Child Loop BB19_6 Depth 2
                                        ;       Child Loop BB19_8 Depth 3
                                        ;         Child Loop BB19_10 Depth 4
	ldr	x9, [sp, #16]                   ; 8-byte Folded Reload
	ldur	w8, [x29, #-36]
	ldr	w9, [x9]
	subs	w8, w8, w9
	cset	w8, ge
	tbnz	w8, #0, LBB19_19
	b	LBB19_5
LBB19_5:                                ;   in Loop: Header=BB19_4 Depth=1
	movi	d0, #0000000000000000
	stur	d0, [x29, #-48]
	stur	wzr, [x29, #-52]
	b	LBB19_6
LBB19_6:                                ;   Parent Loop BB19_4 Depth=1
                                        ; =>  This Loop Header: Depth=2
                                        ;       Child Loop BB19_8 Depth 3
                                        ;         Child Loop BB19_10 Depth 4
	ldur	w8, [x29, #-52]
	subs	w8, w8, #2
	cset	w8, ge
	tbnz	w8, #0, LBB19_17
	b	LBB19_7
LBB19_7:                                ;   in Loop: Header=BB19_6 Depth=2
	movi	d0, #0000000000000000
	str	d0, [sp, #48]
	str	wzr, [sp, #44]
	b	LBB19_8
LBB19_8:                                ;   Parent Loop BB19_4 Depth=1
                                        ;     Parent Loop BB19_6 Depth=2
                                        ; =>    This Loop Header: Depth=3
                                        ;         Child Loop BB19_10 Depth 4
	ldr	w8, [sp, #44]
	subs	w8, w8, #2
	cset	w8, ge
	tbnz	w8, #0, LBB19_15
	b	LBB19_9
LBB19_9:                                ;   in Loop: Header=BB19_8 Depth=3
	movi	d0, #0000000000000000
	str	d0, [sp, #32]
	str	wzr, [sp, #28]
	b	LBB19_10
LBB19_10:                               ;   Parent Loop BB19_4 Depth=1
                                        ;     Parent Loop BB19_6 Depth=2
                                        ;       Parent Loop BB19_8 Depth=3
                                        ; =>      This Inner Loop Header: Depth=4
	ldr	w8, [sp, #28]
	subs	w8, w8, #1
	cset	w8, ge
	tbnz	w8, #0, LBB19_13
	b	LBB19_11
LBB19_11:                               ;   in Loop: Header=BB19_10 Depth=4
	ldur	x0, [x29, #-24]
	ldur	w1, [x29, #-36]
	ldur	w2, [x29, #-52]
	ldr	w3, [sp, #44]
	ldr	w4, [sp, #28]
	bl	__ZN6tensorIfLi2ELi2ELi2ELi1EEclEiiii
	ldr	s0, [x0]
	str	s0, [sp, #12]                   ; 4-byte Folded Spill
	ldur	x0, [x29, #-16]
	ldur	w1, [x29, #-36]
	ldur	w2, [x29, #-52]
	ldr	w3, [sp, #44]
	ldr	w4, [sp, #28]
	bl	__ZN6tensorIfLi2ELi2ELi2ELi1EEclEiiii
	ldr	s0, [sp, #12]                   ; 4-byte Folded Reload
	ldr	s1, [x0]
	fmul	s0, s0, s1
	fcvt	d1, s0
	ldr	d0, [sp, #32]
	fadd	d0, d0, d1
	str	d0, [sp, #32]
	b	LBB19_12
LBB19_12:                               ;   in Loop: Header=BB19_10 Depth=4
	ldr	w8, [sp, #28]
	add	w8, w8, #1
	str	w8, [sp, #28]
	b	LBB19_10
LBB19_13:                               ;   in Loop: Header=BB19_8 Depth=3
	ldr	d1, [sp, #32]
	ldr	d0, [sp, #48]
	fadd	d0, d0, d1
	str	d0, [sp, #48]
	b	LBB19_14
LBB19_14:                               ;   in Loop: Header=BB19_8 Depth=3
	ldr	w8, [sp, #44]
	add	w8, w8, #1
	str	w8, [sp, #44]
	b	LBB19_8
LBB19_15:                               ;   in Loop: Header=BB19_6 Depth=2
	ldr	d1, [sp, #48]
	ldur	d0, [x29, #-48]
	fadd	d0, d0, d1
	stur	d0, [x29, #-48]
	b	LBB19_16
LBB19_16:                               ;   in Loop: Header=BB19_6 Depth=2
	ldur	w8, [x29, #-52]
	add	w8, w8, #1
	stur	w8, [x29, #-52]
	b	LBB19_6
LBB19_17:                               ;   in Loop: Header=BB19_4 Depth=1
	ldur	d1, [x29, #-48]
	ldur	d0, [x29, #-32]
	fadd	d0, d0, d1
	stur	d0, [x29, #-32]
	b	LBB19_18
LBB19_18:                               ;   in Loop: Header=BB19_4 Depth=1
	ldur	w8, [x29, #-36]
	add	w8, w8, #1
	stur	w8, [x29, #-36]
	b	LBB19_4
LBB19_19:
	ldur	d0, [x29, #-32]
	.cfi_def_cfa wsp, 128
	ldp	x29, x30, [sp, #112]            ; 16-byte Folded Reload
	add	sp, sp, #128
	.cfi_def_cfa_offset 0
	.cfi_restore w30
	.cfi_restore w29
	ret
	.cfi_endproc
                                        ; -- End function
	.globl	__ZN6tensorIfLi2ELi2ELi2ELi2EE3dotERS0_ ; -- Begin function _ZN6tensorIfLi2ELi2ELi2ELi2EE3dotERS0_
	.weak_definition	__ZN6tensorIfLi2ELi2ELi2ELi2EE3dotERS0_
	.p2align	2
__ZN6tensorIfLi2ELi2ELi2ELi2EE3dotERS0_: ; @_ZN6tensorIfLi2ELi2ELi2ELi2EE3dotERS0_
	.cfi_startproc
; %bb.0:
	sub	sp, sp, #128
	.cfi_def_cfa_offset 128
	stp	x29, x30, [sp, #112]            ; 16-byte Folded Spill
	add	x29, sp, #112
	.cfi_def_cfa w29, 16
	.cfi_offset w30, -8
	.cfi_offset w29, -16
	stur	x0, [x29, #-8]
	stur	x1, [x29, #-16]
	ldur	x8, [x29, #-8]
	str	x8, [sp, #16]                   ; 8-byte Folded Spill
	stur	x8, [x29, #-24]
	ldur	x8, [x29, #-24]
	ldr	w8, [x8]
	ldur	x9, [x29, #-16]
	ldr	w9, [x9]
	subs	w8, w8, w9
	cset	w8, eq
	tbnz	w8, #0, LBB20_2
	b	LBB20_1
LBB20_1:
	adrp	x0, l___func__._ZN6tensorIfLi2ELi1ELi1ELi1EE3dotERS0_@PAGE
	add	x0, x0, l___func__._ZN6tensorIfLi2ELi1ELi1ELi1EE3dotERS0_@PAGEOFF
	adrp	x1, l_.str.29@PAGE
	add	x1, x1, l_.str.29@PAGEOFF
	mov	w2, #352
	adrp	x3, l_.str.37@PAGE
	add	x3, x3, l_.str.37@PAGEOFF
	bl	___assert_rtn
LBB20_2:
	b	LBB20_3
LBB20_3:
	movi	d0, #0000000000000000
	stur	d0, [x29, #-32]
	stur	wzr, [x29, #-36]
	b	LBB20_4
LBB20_4:                                ; =>This Loop Header: Depth=1
                                        ;     Child Loop BB20_6 Depth 2
                                        ;       Child Loop BB20_8 Depth 3
                                        ;         Child Loop BB20_10 Depth 4
	ldr	x9, [sp, #16]                   ; 8-byte Folded Reload
	ldur	w8, [x29, #-36]
	ldr	w9, [x9]
	subs	w8, w8, w9
	cset	w8, ge
	tbnz	w8, #0, LBB20_19
	b	LBB20_5
LBB20_5:                                ;   in Loop: Header=BB20_4 Depth=1
	movi	d0, #0000000000000000
	stur	d0, [x29, #-48]
	stur	wzr, [x29, #-52]
	b	LBB20_6
LBB20_6:                                ;   Parent Loop BB20_4 Depth=1
                                        ; =>  This Loop Header: Depth=2
                                        ;       Child Loop BB20_8 Depth 3
                                        ;         Child Loop BB20_10 Depth 4
	ldur	w8, [x29, #-52]
	subs	w8, w8, #2
	cset	w8, ge
	tbnz	w8, #0, LBB20_17
	b	LBB20_7
LBB20_7:                                ;   in Loop: Header=BB20_6 Depth=2
	movi	d0, #0000000000000000
	str	d0, [sp, #48]
	str	wzr, [sp, #44]
	b	LBB20_8
LBB20_8:                                ;   Parent Loop BB20_4 Depth=1
                                        ;     Parent Loop BB20_6 Depth=2
                                        ; =>    This Loop Header: Depth=3
                                        ;         Child Loop BB20_10 Depth 4
	ldr	w8, [sp, #44]
	subs	w8, w8, #2
	cset	w8, ge
	tbnz	w8, #0, LBB20_15
	b	LBB20_9
LBB20_9:                                ;   in Loop: Header=BB20_8 Depth=3
	movi	d0, #0000000000000000
	str	d0, [sp, #32]
	str	wzr, [sp, #28]
	b	LBB20_10
LBB20_10:                               ;   Parent Loop BB20_4 Depth=1
                                        ;     Parent Loop BB20_6 Depth=2
                                        ;       Parent Loop BB20_8 Depth=3
                                        ; =>      This Inner Loop Header: Depth=4
	ldr	w8, [sp, #28]
	subs	w8, w8, #2
	cset	w8, ge
	tbnz	w8, #0, LBB20_13
	b	LBB20_11
LBB20_11:                               ;   in Loop: Header=BB20_10 Depth=4
	ldur	x0, [x29, #-24]
	ldur	w1, [x29, #-36]
	ldur	w2, [x29, #-52]
	ldr	w3, [sp, #44]
	ldr	w4, [sp, #28]
	bl	__ZN6tensorIfLi2ELi2ELi2ELi2EEclEiiii
	ldr	s0, [x0]
	str	s0, [sp, #12]                   ; 4-byte Folded Spill
	ldur	x0, [x29, #-16]
	ldur	w1, [x29, #-36]
	ldur	w2, [x29, #-52]
	ldr	w3, [sp, #44]
	ldr	w4, [sp, #28]
	bl	__ZN6tensorIfLi2ELi2ELi2ELi2EEclEiiii
	ldr	s0, [sp, #12]                   ; 4-byte Folded Reload
	ldr	s1, [x0]
	fmul	s0, s0, s1
	fcvt	d1, s0
	ldr	d0, [sp, #32]
	fadd	d0, d0, d1
	str	d0, [sp, #32]
	b	LBB20_12
LBB20_12:                               ;   in Loop: Header=BB20_10 Depth=4
	ldr	w8, [sp, #28]
	add	w8, w8, #1
	str	w8, [sp, #28]
	b	LBB20_10
LBB20_13:                               ;   in Loop: Header=BB20_8 Depth=3
	ldr	d1, [sp, #32]
	ldr	d0, [sp, #48]
	fadd	d0, d0, d1
	str	d0, [sp, #48]
	b	LBB20_14
LBB20_14:                               ;   in Loop: Header=BB20_8 Depth=3
	ldr	w8, [sp, #44]
	add	w8, w8, #1
	str	w8, [sp, #44]
	b	LBB20_8
LBB20_15:                               ;   in Loop: Header=BB20_6 Depth=2
	ldr	d1, [sp, #48]
	ldur	d0, [x29, #-48]
	fadd	d0, d0, d1
	stur	d0, [x29, #-48]
	b	LBB20_16
LBB20_16:                               ;   in Loop: Header=BB20_6 Depth=2
	ldur	w8, [x29, #-52]
	add	w8, w8, #1
	stur	w8, [x29, #-52]
	b	LBB20_6
LBB20_17:                               ;   in Loop: Header=BB20_4 Depth=1
	ldur	d1, [x29, #-48]
	ldur	d0, [x29, #-32]
	fadd	d0, d0, d1
	stur	d0, [x29, #-32]
	b	LBB20_18
LBB20_18:                               ;   in Loop: Header=BB20_4 Depth=1
	ldur	w8, [x29, #-36]
	add	w8, w8, #1
	stur	w8, [x29, #-36]
	b	LBB20_4
LBB20_19:
	ldur	d0, [x29, #-32]
	.cfi_def_cfa wsp, 128
	ldp	x29, x30, [sp, #112]            ; 16-byte Folded Reload
	add	sp, sp, #128
	.cfi_def_cfa_offset 0
	.cfi_restore w30
	.cfi_restore w29
	ret
	.cfi_endproc
                                        ; -- End function
	.globl	__ZN9rnd_gen_t4seedEy           ; -- Begin function _ZN9rnd_gen_t4seedEy
	.weak_definition	__ZN9rnd_gen_t4seedEy
	.p2align	2
__ZN9rnd_gen_t4seedEy:                  ; @_ZN9rnd_gen_t4seedEy
	.cfi_startproc
; %bb.0:
	sub	sp, sp, #16
	.cfi_def_cfa_offset 16
	str	x0, [sp, #8]
	str	x1, [sp]
	ldr	x9, [sp, #8]
	ldr	x8, [sp]
	str	x8, [x9]
	add	sp, sp, #16
	.cfi_def_cfa_offset 0
	ret
	.cfi_endproc
                                        ; -- End function
	.globl	__ZN6tensorIfLi10000ELi1ELi1ELi1EE14init_uniform_iEiR9rnd_gen_tff ; -- Begin function _ZN6tensorIfLi10000ELi1ELi1ELi1EE14init_uniform_iEiR9rnd_gen_tff
	.weak_definition	__ZN6tensorIfLi10000ELi1ELi1ELi1EE14init_uniform_iEiR9rnd_gen_tff
	.p2align	2
__ZN6tensorIfLi10000ELi1ELi1ELi1EE14init_uniform_iEiR9rnd_gen_tff: ; @_ZN6tensorIfLi10000ELi1ELi1ELi1EE14init_uniform_iEiR9rnd_gen_tff
	.cfi_startproc
; %bb.0:
	sub	sp, sp, #96
	.cfi_def_cfa_offset 96
	stp	x29, x30, [sp, #80]             ; 16-byte Folded Spill
	add	x29, sp, #80
	.cfi_def_cfa w29, 16
	.cfi_offset w30, -8
	.cfi_offset w29, -16
	stur	x0, [x29, #-8]
	stur	w1, [x29, #-12]
	stur	x2, [x29, #-24]
	stur	s0, [x29, #-28]
	stur	s1, [x29, #-32]
	ldur	x0, [x29, #-8]
	str	x0, [sp, #16]                   ; 8-byte Folded Spill
	ldur	w1, [x29, #-12]
	bl	__ZN6tensorIfLi10000ELi1ELi1ELi1EE6set_n0Ei
	ldr	x8, [sp, #16]                   ; 8-byte Folded Reload
	str	x8, [sp, #40]
	str	wzr, [sp, #36]
	b	LBB22_1
LBB22_1:                                ; =>This Loop Header: Depth=1
                                        ;     Child Loop BB22_3 Depth 2
                                        ;       Child Loop BB22_5 Depth 3
                                        ;         Child Loop BB22_7 Depth 4
	ldr	w8, [sp, #36]
	ldur	w9, [x29, #-12]
	subs	w8, w8, w9
	cset	w8, ge
	tbnz	w8, #0, LBB22_16
	b	LBB22_2
LBB22_2:                                ;   in Loop: Header=BB22_1 Depth=1
	str	wzr, [sp, #32]
	b	LBB22_3
LBB22_3:                                ;   Parent Loop BB22_1 Depth=1
                                        ; =>  This Loop Header: Depth=2
                                        ;       Child Loop BB22_5 Depth 3
                                        ;         Child Loop BB22_7 Depth 4
	ldr	w8, [sp, #32]
	subs	w8, w8, #1
	cset	w8, ge
	tbnz	w8, #0, LBB22_14
	b	LBB22_4
LBB22_4:                                ;   in Loop: Header=BB22_3 Depth=2
	str	wzr, [sp, #28]
	b	LBB22_5
LBB22_5:                                ;   Parent Loop BB22_1 Depth=1
                                        ;     Parent Loop BB22_3 Depth=2
                                        ; =>    This Loop Header: Depth=3
                                        ;         Child Loop BB22_7 Depth 4
	ldr	w8, [sp, #28]
	subs	w8, w8, #1
	cset	w8, ge
	tbnz	w8, #0, LBB22_12
	b	LBB22_6
LBB22_6:                                ;   in Loop: Header=BB22_5 Depth=3
	str	wzr, [sp, #24]
	b	LBB22_7
LBB22_7:                                ;   Parent Loop BB22_1 Depth=1
                                        ;     Parent Loop BB22_3 Depth=2
                                        ;       Parent Loop BB22_5 Depth=3
                                        ; =>      This Inner Loop Header: Depth=4
	ldr	w8, [sp, #24]
	subs	w8, w8, #1
	cset	w8, ge
	tbnz	w8, #0, LBB22_10
	b	LBB22_8
LBB22_8:                                ;   in Loop: Header=BB22_7 Depth=4
	ldur	x0, [x29, #-24]
	ldur	s0, [x29, #-28]
	fcvtzs	x1, s0
	ldur	s0, [x29, #-32]
	fcvtzs	x2, s0
	bl	__ZN9rnd_gen_t5randiEll
	scvtf	s0, x0
	str	s0, [sp, #12]                   ; 4-byte Folded Spill
	ldr	x0, [sp, #40]
	ldr	w1, [sp, #36]
	ldr	w2, [sp, #32]
	ldr	w3, [sp, #28]
	ldr	w4, [sp, #24]
	bl	__ZN6tensorIfLi10000ELi1ELi1ELi1EEclEiiii
	ldr	s0, [sp, #12]                   ; 4-byte Folded Reload
	str	s0, [x0]
	b	LBB22_9
LBB22_9:                                ;   in Loop: Header=BB22_7 Depth=4
	ldr	w8, [sp, #24]
	add	w8, w8, #1
	str	w8, [sp, #24]
	b	LBB22_7
LBB22_10:                               ;   in Loop: Header=BB22_5 Depth=3
	b	LBB22_11
LBB22_11:                               ;   in Loop: Header=BB22_5 Depth=3
	ldr	w8, [sp, #28]
	add	w8, w8, #1
	str	w8, [sp, #28]
	b	LBB22_5
LBB22_12:                               ;   in Loop: Header=BB22_3 Depth=2
	b	LBB22_13
LBB22_13:                               ;   in Loop: Header=BB22_3 Depth=2
	ldr	w8, [sp, #32]
	add	w8, w8, #1
	str	w8, [sp, #32]
	b	LBB22_3
LBB22_14:                               ;   in Loop: Header=BB22_1 Depth=1
	b	LBB22_15
LBB22_15:                               ;   in Loop: Header=BB22_1 Depth=1
	ldr	w8, [sp, #36]
	add	w8, w8, #1
	str	w8, [sp, #36]
	b	LBB22_1
LBB22_16:
	.cfi_def_cfa wsp, 96
	ldp	x29, x30, [sp, #80]             ; 16-byte Folded Reload
	add	sp, sp, #96
	.cfi_def_cfa_offset 0
	.cfi_restore w30
	.cfi_restore w29
	ret
	.cfi_endproc
                                        ; -- End function
	.globl	__ZN6tensorIfLi10000ELi1ELi1ELi1EEclEiiii ; -- Begin function _ZN6tensorIfLi10000ELi1ELi1ELi1EEclEiiii
	.weak_definition	__ZN6tensorIfLi10000ELi1ELi1ELi1EEclEiiii
	.p2align	2
__ZN6tensorIfLi10000ELi1ELi1ELi1EEclEiiii: ; @_ZN6tensorIfLi10000ELi1ELi1ELi1EEclEiiii
	.cfi_startproc
; %bb.0:
	sub	sp, sp, #32
	.cfi_def_cfa_offset 32
	str	x0, [sp, #24]
	str	w1, [sp, #20]
	str	w2, [sp, #16]
	str	w3, [sp, #12]
	str	w4, [sp, #8]
	ldr	x8, [sp, #24]
	add	x8, x8, #4
	ldrsw	x9, [sp, #20]
	add	x8, x8, x9, lsl #2
	ldrsw	x9, [sp, #16]
	add	x8, x8, x9, lsl #2
	ldrsw	x9, [sp, #12]
	add	x8, x8, x9, lsl #2
	ldrsw	x9, [sp, #8]
	add	x0, x8, x9, lsl #2
	add	sp, sp, #32
	.cfi_def_cfa_offset 0
	ret
	.cfi_endproc
                                        ; -- End function
	.globl	__ZN6tensorIfLi2ELi1ELi1ELi1EE6set_n0Ei ; -- Begin function _ZN6tensorIfLi2ELi1ELi1ELi1EE6set_n0Ei
	.weak_definition	__ZN6tensorIfLi2ELi1ELi1ELi1EE6set_n0Ei
	.p2align	2
__ZN6tensorIfLi2ELi1ELi1ELi1EE6set_n0Ei: ; @_ZN6tensorIfLi2ELi1ELi1ELi1EE6set_n0Ei
	.cfi_startproc
; %bb.0:
	sub	sp, sp, #48
	.cfi_def_cfa_offset 48
	stp	x29, x30, [sp, #32]             ; 16-byte Folded Spill
	add	x29, sp, #32
	.cfi_def_cfa w29, 16
	.cfi_offset w30, -8
	.cfi_offset w29, -16
	stur	x0, [x29, #-8]
	stur	w1, [x29, #-12]
	ldur	x8, [x29, #-8]
	str	x8, [sp, #8]                    ; 8-byte Folded Spill
	ldur	w8, [x29, #-12]
	subs	w8, w8, #2
	cset	w8, le
	tbnz	w8, #0, LBB24_2
	b	LBB24_1
LBB24_1:
	adrp	x0, l___func__._ZN6tensorIfLi2ELi1ELi1ELi1EE6set_n0Ei@PAGE
	add	x0, x0, l___func__._ZN6tensorIfLi2ELi1ELi1ELi1EE6set_n0Ei@PAGEOFF
	adrp	x1, l_.str.29@PAGE
	add	x1, x1, l_.str.29@PAGEOFF
	mov	w2, #111
	adrp	x3, l_.str.36@PAGE
	add	x3, x3, l_.str.36@PAGEOFF
	bl	___assert_rtn
LBB24_2:
	b	LBB24_3
LBB24_3:
	ldr	x9, [sp, #8]                    ; 8-byte Folded Reload
	ldur	w8, [x29, #-12]
	str	w8, [x9]
	.cfi_def_cfa wsp, 48
	ldp	x29, x30, [sp, #32]             ; 16-byte Folded Reload
	add	sp, sp, #48
	.cfi_def_cfa_offset 0
	.cfi_restore w30
	.cfi_restore w29
	ret
	.cfi_endproc
                                        ; -- End function
	.globl	__ZN6tensorIfLi2ELi1ELi1ELi1EEclEiiii ; -- Begin function _ZN6tensorIfLi2ELi1ELi1ELi1EEclEiiii
	.weak_definition	__ZN6tensorIfLi2ELi1ELi1ELi1EEclEiiii
	.p2align	2
__ZN6tensorIfLi2ELi1ELi1ELi1EEclEiiii:  ; @_ZN6tensorIfLi2ELi1ELi1ELi1EEclEiiii
	.cfi_startproc
; %bb.0:
	sub	sp, sp, #32
	.cfi_def_cfa_offset 32
	str	x0, [sp, #24]
	str	w1, [sp, #20]
	str	w2, [sp, #16]
	str	w3, [sp, #12]
	str	w4, [sp, #8]
	ldr	x8, [sp, #24]
	add	x8, x8, #4
	ldrsw	x9, [sp, #20]
	add	x8, x8, x9, lsl #2
	ldrsw	x9, [sp, #16]
	add	x8, x8, x9, lsl #2
	ldrsw	x9, [sp, #12]
	add	x8, x8, x9, lsl #2
	ldrsw	x9, [sp, #8]
	add	x0, x8, x9, lsl #2
	add	sp, sp, #32
	.cfi_def_cfa_offset 0
	ret
	.cfi_endproc
                                        ; -- End function
	.globl	__ZN6tensorIfLi2ELi2ELi1ELi1EE6set_n0Ei ; -- Begin function _ZN6tensorIfLi2ELi2ELi1ELi1EE6set_n0Ei
	.weak_definition	__ZN6tensorIfLi2ELi2ELi1ELi1EE6set_n0Ei
	.p2align	2
__ZN6tensorIfLi2ELi2ELi1ELi1EE6set_n0Ei: ; @_ZN6tensorIfLi2ELi2ELi1ELi1EE6set_n0Ei
	.cfi_startproc
; %bb.0:
	sub	sp, sp, #48
	.cfi_def_cfa_offset 48
	stp	x29, x30, [sp, #32]             ; 16-byte Folded Spill
	add	x29, sp, #32
	.cfi_def_cfa w29, 16
	.cfi_offset w30, -8
	.cfi_offset w29, -16
	stur	x0, [x29, #-8]
	stur	w1, [x29, #-12]
	ldur	x8, [x29, #-8]
	str	x8, [sp, #8]                    ; 8-byte Folded Spill
	ldur	w8, [x29, #-12]
	subs	w8, w8, #2
	cset	w8, le
	tbnz	w8, #0, LBB26_2
	b	LBB26_1
LBB26_1:
	adrp	x0, l___func__._ZN6tensorIfLi2ELi1ELi1ELi1EE6set_n0Ei@PAGE
	add	x0, x0, l___func__._ZN6tensorIfLi2ELi1ELi1ELi1EE6set_n0Ei@PAGEOFF
	adrp	x1, l_.str.29@PAGE
	add	x1, x1, l_.str.29@PAGEOFF
	mov	w2, #111
	adrp	x3, l_.str.36@PAGE
	add	x3, x3, l_.str.36@PAGEOFF
	bl	___assert_rtn
LBB26_2:
	b	LBB26_3
LBB26_3:
	ldr	x9, [sp, #8]                    ; 8-byte Folded Reload
	ldur	w8, [x29, #-12]
	str	w8, [x9]
	.cfi_def_cfa wsp, 48
	ldp	x29, x30, [sp, #32]             ; 16-byte Folded Reload
	add	sp, sp, #48
	.cfi_def_cfa_offset 0
	.cfi_restore w30
	.cfi_restore w29
	ret
	.cfi_endproc
                                        ; -- End function
	.globl	__ZN6tensorIfLi2ELi2ELi1ELi1EEclEiiii ; -- Begin function _ZN6tensorIfLi2ELi2ELi1ELi1EEclEiiii
	.weak_definition	__ZN6tensorIfLi2ELi2ELi1ELi1EEclEiiii
	.p2align	2
__ZN6tensorIfLi2ELi2ELi1ELi1EEclEiiii:  ; @_ZN6tensorIfLi2ELi2ELi1ELi1EEclEiiii
	.cfi_startproc
; %bb.0:
	sub	sp, sp, #32
	.cfi_def_cfa_offset 32
	str	x0, [sp, #24]
	str	w1, [sp, #20]
	str	w2, [sp, #16]
	str	w3, [sp, #12]
	str	w4, [sp, #8]
	ldr	x8, [sp, #24]
	add	x8, x8, #4
	ldrsw	x9, [sp, #20]
	add	x8, x8, x9, lsl #3
	ldrsw	x9, [sp, #16]
	add	x8, x8, x9, lsl #2
	ldrsw	x9, [sp, #12]
	add	x8, x8, x9, lsl #2
	ldrsw	x9, [sp, #8]
	add	x0, x8, x9, lsl #2
	add	sp, sp, #32
	.cfi_def_cfa_offset 0
	ret
	.cfi_endproc
                                        ; -- End function
	.globl	__ZN6tensorIfLi2ELi2ELi2ELi1EE6set_n0Ei ; -- Begin function _ZN6tensorIfLi2ELi2ELi2ELi1EE6set_n0Ei
	.weak_definition	__ZN6tensorIfLi2ELi2ELi2ELi1EE6set_n0Ei
	.p2align	2
__ZN6tensorIfLi2ELi2ELi2ELi1EE6set_n0Ei: ; @_ZN6tensorIfLi2ELi2ELi2ELi1EE6set_n0Ei
	.cfi_startproc
; %bb.0:
	sub	sp, sp, #48
	.cfi_def_cfa_offset 48
	stp	x29, x30, [sp, #32]             ; 16-byte Folded Spill
	add	x29, sp, #32
	.cfi_def_cfa w29, 16
	.cfi_offset w30, -8
	.cfi_offset w29, -16
	stur	x0, [x29, #-8]
	stur	w1, [x29, #-12]
	ldur	x8, [x29, #-8]
	str	x8, [sp, #8]                    ; 8-byte Folded Spill
	ldur	w8, [x29, #-12]
	subs	w8, w8, #2
	cset	w8, le
	tbnz	w8, #0, LBB28_2
	b	LBB28_1
LBB28_1:
	adrp	x0, l___func__._ZN6tensorIfLi2ELi1ELi1ELi1EE6set_n0Ei@PAGE
	add	x0, x0, l___func__._ZN6tensorIfLi2ELi1ELi1ELi1EE6set_n0Ei@PAGEOFF
	adrp	x1, l_.str.29@PAGE
	add	x1, x1, l_.str.29@PAGEOFF
	mov	w2, #111
	adrp	x3, l_.str.36@PAGE
	add	x3, x3, l_.str.36@PAGEOFF
	bl	___assert_rtn
LBB28_2:
	b	LBB28_3
LBB28_3:
	ldr	x9, [sp, #8]                    ; 8-byte Folded Reload
	ldur	w8, [x29, #-12]
	str	w8, [x9]
	.cfi_def_cfa wsp, 48
	ldp	x29, x30, [sp, #32]             ; 16-byte Folded Reload
	add	sp, sp, #48
	.cfi_def_cfa_offset 0
	.cfi_restore w30
	.cfi_restore w29
	ret
	.cfi_endproc
                                        ; -- End function
	.globl	__ZN6tensorIfLi2ELi2ELi2ELi1EEclEiiii ; -- Begin function _ZN6tensorIfLi2ELi2ELi2ELi1EEclEiiii
	.weak_definition	__ZN6tensorIfLi2ELi2ELi2ELi1EEclEiiii
	.p2align	2
__ZN6tensorIfLi2ELi2ELi2ELi1EEclEiiii:  ; @_ZN6tensorIfLi2ELi2ELi2ELi1EEclEiiii
	.cfi_startproc
; %bb.0:
	sub	sp, sp, #32
	.cfi_def_cfa_offset 32
	str	x0, [sp, #24]
	str	w1, [sp, #20]
	str	w2, [sp, #16]
	str	w3, [sp, #12]
	str	w4, [sp, #8]
	ldr	x8, [sp, #24]
	add	x8, x8, #4
	ldrsw	x9, [sp, #20]
	add	x8, x8, x9, lsl #4
	ldrsw	x9, [sp, #16]
	add	x8, x8, x9, lsl #3
	ldrsw	x9, [sp, #12]
	add	x8, x8, x9, lsl #2
	ldrsw	x9, [sp, #8]
	add	x0, x8, x9, lsl #2
	add	sp, sp, #32
	.cfi_def_cfa_offset 0
	ret
	.cfi_endproc
                                        ; -- End function
	.globl	__ZN6tensorIfLi2ELi2ELi2ELi2EE6set_n0Ei ; -- Begin function _ZN6tensorIfLi2ELi2ELi2ELi2EE6set_n0Ei
	.weak_definition	__ZN6tensorIfLi2ELi2ELi2ELi2EE6set_n0Ei
	.p2align	2
__ZN6tensorIfLi2ELi2ELi2ELi2EE6set_n0Ei: ; @_ZN6tensorIfLi2ELi2ELi2ELi2EE6set_n0Ei
	.cfi_startproc
; %bb.0:
	sub	sp, sp, #48
	.cfi_def_cfa_offset 48
	stp	x29, x30, [sp, #32]             ; 16-byte Folded Spill
	add	x29, sp, #32
	.cfi_def_cfa w29, 16
	.cfi_offset w30, -8
	.cfi_offset w29, -16
	stur	x0, [x29, #-8]
	stur	w1, [x29, #-12]
	ldur	x8, [x29, #-8]
	str	x8, [sp, #8]                    ; 8-byte Folded Spill
	ldur	w8, [x29, #-12]
	subs	w8, w8, #2
	cset	w8, le
	tbnz	w8, #0, LBB30_2
	b	LBB30_1
LBB30_1:
	adrp	x0, l___func__._ZN6tensorIfLi2ELi1ELi1ELi1EE6set_n0Ei@PAGE
	add	x0, x0, l___func__._ZN6tensorIfLi2ELi1ELi1ELi1EE6set_n0Ei@PAGEOFF
	adrp	x1, l_.str.29@PAGE
	add	x1, x1, l_.str.29@PAGEOFF
	mov	w2, #111
	adrp	x3, l_.str.36@PAGE
	add	x3, x3, l_.str.36@PAGEOFF
	bl	___assert_rtn
LBB30_2:
	b	LBB30_3
LBB30_3:
	ldr	x9, [sp, #8]                    ; 8-byte Folded Reload
	ldur	w8, [x29, #-12]
	str	w8, [x9]
	.cfi_def_cfa wsp, 48
	ldp	x29, x30, [sp, #32]             ; 16-byte Folded Reload
	add	sp, sp, #48
	.cfi_def_cfa_offset 0
	.cfi_restore w30
	.cfi_restore w29
	ret
	.cfi_endproc
                                        ; -- End function
	.globl	__ZN6tensorIfLi2ELi2ELi2ELi2EEclEiiii ; -- Begin function _ZN6tensorIfLi2ELi2ELi2ELi2EEclEiiii
	.weak_definition	__ZN6tensorIfLi2ELi2ELi2ELi2EEclEiiii
	.p2align	2
__ZN6tensorIfLi2ELi2ELi2ELi2EEclEiiii:  ; @_ZN6tensorIfLi2ELi2ELi2ELi2EEclEiiii
	.cfi_startproc
; %bb.0:
	sub	sp, sp, #32
	.cfi_def_cfa_offset 32
	str	x0, [sp, #24]
	str	w1, [sp, #20]
	str	w2, [sp, #16]
	str	w3, [sp, #12]
	str	w4, [sp, #8]
	ldr	x8, [sp, #24]
	add	x8, x8, #4
	ldrsw	x9, [sp, #20]
	add	x8, x8, x9, lsl #5
	ldrsw	x9, [sp, #16]
	add	x8, x8, x9, lsl #4
	ldrsw	x9, [sp, #12]
	add	x8, x8, x9, lsl #3
	ldrsw	x9, [sp, #8]
	add	x0, x8, x9, lsl #2
	add	sp, sp, #32
	.cfi_def_cfa_offset 0
	ret
	.cfi_endproc
                                        ; -- End function
	.globl	__ZN6tensorIfLi10000ELi1ELi1ELi1EE6set_n0Ei ; -- Begin function _ZN6tensorIfLi10000ELi1ELi1ELi1EE6set_n0Ei
	.weak_definition	__ZN6tensorIfLi10000ELi1ELi1ELi1EE6set_n0Ei
	.p2align	2
__ZN6tensorIfLi10000ELi1ELi1ELi1EE6set_n0Ei: ; @_ZN6tensorIfLi10000ELi1ELi1ELi1EE6set_n0Ei
	.cfi_startproc
; %bb.0:
	sub	sp, sp, #48
	.cfi_def_cfa_offset 48
	stp	x29, x30, [sp, #32]             ; 16-byte Folded Spill
	add	x29, sp, #32
	.cfi_def_cfa w29, 16
	.cfi_offset w30, -8
	.cfi_offset w29, -16
	stur	x0, [x29, #-8]
	stur	w1, [x29, #-12]
	ldur	x8, [x29, #-8]
	str	x8, [sp, #8]                    ; 8-byte Folded Spill
	ldur	w8, [x29, #-12]
	mov	w9, #10000
	subs	w8, w8, w9
	cset	w8, le
	tbnz	w8, #0, LBB32_2
	b	LBB32_1
LBB32_1:
	adrp	x0, l___func__._ZN6tensorIfLi2ELi1ELi1ELi1EE6set_n0Ei@PAGE
	add	x0, x0, l___func__._ZN6tensorIfLi2ELi1ELi1ELi1EE6set_n0Ei@PAGEOFF
	adrp	x1, l_.str.29@PAGE
	add	x1, x1, l_.str.29@PAGEOFF
	mov	w2, #111
	adrp	x3, l_.str.36@PAGE
	add	x3, x3, l_.str.36@PAGEOFF
	bl	___assert_rtn
LBB32_2:
	b	LBB32_3
LBB32_3:
	ldr	x9, [sp, #8]                    ; 8-byte Folded Reload
	ldur	w8, [x29, #-12]
	str	w8, [x9]
	.cfi_def_cfa wsp, 48
	ldp	x29, x30, [sp, #32]             ; 16-byte Folded Reload
	add	sp, sp, #48
	.cfi_def_cfa_offset 0
	.cfi_restore w30
	.cfi_restore w29
	ret
	.cfi_endproc
                                        ; -- End function
	.globl	__ZN9rnd_gen_t5randiEll         ; -- Begin function _ZN9rnd_gen_t5randiEll
	.weak_definition	__ZN9rnd_gen_t5randiEll
	.p2align	2
__ZN9rnd_gen_t5randiEll:                ; @_ZN9rnd_gen_t5randiEll
	.cfi_startproc
; %bb.0:
	sub	sp, sp, #48
	.cfi_def_cfa_offset 48
	stp	x29, x30, [sp, #32]             ; 16-byte Folded Spill
	add	x29, sp, #32
	.cfi_def_cfa w29, 16
	.cfi_offset w30, -8
	.cfi_offset w29, -16
	stur	x0, [x29, #-8]
	str	x1, [sp, #16]
	str	x2, [sp, #8]
	ldur	x0, [x29, #-8]
	ldr	x8, [sp, #16]
	str	x8, [sp]                        ; 8-byte Folded Spill
	bl	__ZN9rnd_gen_t7randi32Ev
	ldr	x8, [sp]                        ; 8-byte Folded Reload
	ldr	x9, [sp, #8]
	ldr	x10, [sp, #16]
	subs	x10, x9, x10
	sdiv	x9, x0, x10
	mul	x9, x9, x10
	subs	x9, x0, x9
	add	x0, x8, x9
	.cfi_def_cfa wsp, 48
	ldp	x29, x30, [sp, #32]             ; 16-byte Folded Reload
	add	sp, sp, #48
	.cfi_def_cfa_offset 0
	.cfi_restore w30
	.cfi_restore w29
	ret
	.cfi_endproc
                                        ; -- End function
	.globl	__ZN9rnd_gen_t7randi32Ev        ; -- Begin function _ZN9rnd_gen_t7randi32Ev
	.weak_definition	__ZN9rnd_gen_t7randi32Ev
	.p2align	2
__ZN9rnd_gen_t7randi32Ev:               ; @_ZN9rnd_gen_t7randi32Ev
	.cfi_startproc
; %bb.0:
	sub	sp, sp, #32
	.cfi_def_cfa_offset 32
	stp	x29, x30, [sp, #16]             ; 16-byte Folded Spill
	add	x29, sp, #16
	.cfi_def_cfa w29, 16
	.cfi_offset w30, -8
	.cfi_offset w29, -16
	str	x0, [sp, #8]
	ldr	x0, [sp, #8]
	str	x0, [sp]                        ; 8-byte Folded Spill
	bl	__ZN9rnd_gen_t4nextEv
	ldr	x8, [sp]                        ; 8-byte Folded Reload
	ldr	x8, [x8]
	lsr	x8, x8, #17
	and	x0, x8, #0x7fffffff
	.cfi_def_cfa wsp, 32
	ldp	x29, x30, [sp, #16]             ; 16-byte Folded Reload
	add	sp, sp, #32
	.cfi_def_cfa_offset 0
	.cfi_restore w30
	.cfi_restore w29
	ret
	.cfi_endproc
                                        ; -- End function
	.globl	__ZN9rnd_gen_t4nextEv           ; -- Begin function _ZN9rnd_gen_t4nextEv
	.weak_definition	__ZN9rnd_gen_t4nextEv
	.p2align	2
__ZN9rnd_gen_t4nextEv:                  ; @_ZN9rnd_gen_t4nextEv
	.cfi_startproc
; %bb.0:
	sub	sp, sp, #32
	.cfi_def_cfa_offset 32
	str	x0, [sp, #24]
	ldr	x9, [sp, #24]
	mov	x10, #58989
	movk	x10, #57068, lsl #16
	movk	x10, #5, lsl #32
	str	x10, [sp, #16]
	mov	x8, #11
	str	x8, [sp, #8]
	mov	x8, #281474976710655
	str	x8, [sp]
	ldr	x8, [x9]
	mul	x8, x8, x10
	add	x8, x8, #11
	and	x8, x8, #0xffffffffffff
	str	x8, [x9]
	add	sp, sp, #32
	.cfi_def_cfa_offset 0
	ret
	.cfi_endproc
                                        ; -- End function
	.globl	__Z15mnist_data_mainiPPc        ; -- Begin function _Z15mnist_data_mainiPPc
	.p2align	2
__Z15mnist_data_mainiPPc:               ; @_Z15mnist_data_mainiPPc
	.cfi_startproc
; %bb.0:
	stp	x28, x27, [sp, #-32]!           ; 16-byte Folded Spill
	.cfi_def_cfa_offset 32
	stp	x29, x30, [sp, #16]             ; 16-byte Folded Spill
	add	x29, sp, #16
	.cfi_def_cfa w29, 16
	.cfi_offset w30, -8
	.cfi_offset w29, -16
	.cfi_offset w27, -24
	.cfi_offset w28, -32
	sub	sp, sp, #49, lsl #12            ; =200704
	sub	sp, sp, #1072
	add	x8, sp, #49, lsl #12            ; =200704
	add	x8, x8, #616
	str	x8, [sp, #72]                   ; 8-byte Folded Spill
	str	w0, [x8, #452]
	str	x1, [x8, #440]
	ldr	w0, [x8, #452]
	ldr	x1, [x8, #440]
	sub	x8, x29, #152
	str	x8, [sp, #8]                    ; 8-byte Folded Spill
	bl	__ZL10parse_argsiPPc
	ldr	x9, [sp, #72]                   ; 8-byte Folded Reload
	mov	w8, #64
	str	w8, [x9, #316]
	ldr	w8, [x9, #352]
	str	w8, [x9, #312]
	mov	w8, #1
	str	w8, [sp, #24]                   ; 4-byte Folded Spill
	str	w8, [x9, #308]
	mov	w8, #28
	str	w8, [x9, #304]
	str	w8, [x9, #300]
	add	x0, sp, #49, lsl #12            ; =200704
	add	x0, x0, #776
	str	x0, [sp, #64]                   ; 8-byte Folded Spill
	bl	__ZN6loggerC1Ev
	ldr	x1, [sp, #8]                    ; 8-byte Folded Reload
	add	x0, sp, #49, lsl #12            ; =200704
	add	x0, x0, #656
	str	x0, [sp, #16]                   ; 8-byte Folded Spill
	mov	x2, #120
	bl	_memcpy
	ldr	x0, [sp, #64]                   ; 8-byte Folded Reload
	ldr	x1, [sp, #16]                   ; 8-byte Folded Reload
	bl	__ZN6logger9start_logE11cmdline_opt
	ldr	w4, [sp, #24]                   ; 4-byte Folded Reload
	ldr	x1, [sp, #64]                   ; 8-byte Folded Reload
	ldr	x8, [sp, #72]                   ; 8-byte Folded Reload
	mov	w9, #54841
	movk	w9, #15877, lsl #16
	fmov	s0, w9
	str	s0, [x8, #4]
	mov	w9, #48968
	movk	w9, #16029, lsl #16
	fmov	s0, w9
	str	s0, [x8]
	ldr	x2, [x8, #328]
	ldrsw	x3, [x8, #356]
	ldr	s0, [x8, #4]
	ldr	s1, [x8]
	add	x0, sp, #49, lsl #12            ; =200704
	add	x0, x0, #624
	str	x0, [sp, #32]                   ; 8-byte Folded Spill
	bl	__ZN13mnist_datasetILi64ELi1ELi28ELi28EE4loadER6loggerPKclffi
	ldr	x8, [sp, #72]                   ; 8-byte Folded Reload
	ldr	w1, [x8, #312]
	add	x0, sp, #612
	str	x0, [sp, #40]                   ; 8-byte Folded Spill
	movi	d0, #0000000000000000
	bl	__ZN6tensorIfLi64ELi1ELi28ELi28EE10init_constEif
	ldr	x8, [sp, #72]                   ; 8-byte Folded Reload
	ldr	w1, [x8, #312]
	add	x0, sp, #352
	str	x0, [sp, #48]                   ; 8-byte Folded Spill
	mov	w2, #0
	str	w2, [sp, #28]                   ; 4-byte Folded Spill
	bl	__ZN6tensorIiLi64ELi1ELi1ELi1EE10init_constEii
	ldr	w2, [sp, #28]                   ; 4-byte Folded Reload
	ldr	x8, [sp, #72]                   ; 8-byte Folded Reload
	ldr	w1, [x8, #312]
	add	x0, sp, #92
	str	x0, [sp, #56]                   ; 8-byte Folded Spill
	bl	__ZN6tensorIiLi64ELi1ELi1ELi1EE10init_constEii
	ldr	x0, [sp, #32]                   ; 8-byte Folded Reload
	ldr	x1, [sp, #40]                   ; 8-byte Folded Reload
	ldr	x2, [sp, #48]                   ; 8-byte Folded Reload
	ldr	x3, [sp, #56]                   ; 8-byte Folded Reload
	ldr	x8, [sp, #72]                   ; 8-byte Folded Reload
	ldr	w4, [x8, #312]
	ldr	w5, [x8, #420]
	bl	__ZN13mnist_datasetILi64ELi1ELi28ELi28EE8get_dataER6tensorIfLi64ELi1ELi28ELi28EERS1_IiLi64ELi1ELi1ELi1EES5_ii
	ldr	x0, [sp, #64]                   ; 8-byte Folded Reload
	bl	__ZN6logger7end_logEv
	ldr	x8, [sp, #72]                   ; 8-byte Folded Reload
	ldr	x8, [x8, #24]
	str	x8, [sp, #80]                   ; 8-byte Folded Spill
	subs	x8, x8, #0
	cset	w8, eq
	tbnz	w8, #0, LBB36_2
	b	LBB36_1
LBB36_1:
	ldr	x0, [sp, #80]                   ; 8-byte Folded Reload
	bl	__ZdaPv
	b	LBB36_2
LBB36_2:
	mov	w0, #0
	add	sp, sp, #49, lsl #12            ; =200704
	add	sp, sp, #1072
	.cfi_def_cfa wsp, 32
	ldp	x29, x30, [sp, #16]             ; 16-byte Folded Reload
	ldp	x28, x27, [sp], #32             ; 16-byte Folded Reload
	.cfi_def_cfa_offset 0
	.cfi_restore w30
	.cfi_restore w29
	.cfi_restore w27
	.cfi_restore w28
	ret
	.cfi_endproc
                                        ; -- End function
	.globl	__ZN6loggerC1Ev                 ; -- Begin function _ZN6loggerC1Ev
	.weak_def_can_be_hidden	__ZN6loggerC1Ev
	.p2align	2
__ZN6loggerC1Ev:                        ; @_ZN6loggerC1Ev
	.cfi_startproc
; %bb.0:
	sub	sp, sp, #32
	.cfi_def_cfa_offset 32
	stp	x29, x30, [sp, #16]             ; 16-byte Folded Spill
	add	x29, sp, #16
	.cfi_def_cfa w29, 16
	.cfi_offset w30, -8
	.cfi_offset w29, -16
	str	x0, [sp, #8]
	ldr	x0, [sp, #8]
	str	x0, [sp]                        ; 8-byte Folded Spill
	bl	__ZN6loggerC2Ev
	ldr	x0, [sp]                        ; 8-byte Folded Reload
	.cfi_def_cfa wsp, 32
	ldp	x29, x30, [sp, #16]             ; 16-byte Folded Reload
	add	sp, sp, #32
	.cfi_def_cfa_offset 0
	.cfi_restore w30
	.cfi_restore w29
	ret
	.cfi_endproc
                                        ; -- End function
	.globl	__ZN6logger9start_logE11cmdline_opt ; -- Begin function _ZN6logger9start_logE11cmdline_opt
	.weak_definition	__ZN6logger9start_logE11cmdline_opt
	.p2align	2
__ZN6logger9start_logE11cmdline_opt:    ; @_ZN6logger9start_logE11cmdline_opt
	.cfi_startproc
; %bb.0:
	sub	sp, sp, #64
	.cfi_def_cfa_offset 64
	stp	x29, x30, [sp, #48]             ; 16-byte Folded Spill
	add	x29, sp, #48
	.cfi_def_cfa w29, 16
	.cfi_offset w30, -8
	.cfi_offset w29, -16
	str	x1, [sp, #16]                   ; 8-byte Folded Spill
	stur	x0, [x29, #-8]
	ldur	x0, [x29, #-8]
	str	x0, [sp, #24]                   ; 8-byte Folded Spill
	mov	x2, #120
	bl	_memcpy
	ldr	x1, [sp, #16]                   ; 8-byte Folded Reload
	ldr	x0, [x1, #104]
	adrp	x1, l_.str.38@PAGE
	add	x1, x1, l_.str.38@PAGEOFF
	bl	_fopen
	ldr	x8, [sp, #24]                   ; 8-byte Folded Reload
	str	x0, [x8, #120]
	ldr	x8, [x8, #120]
	subs	x8, x8, #0
	cset	w8, ne
	tbnz	w8, #0, LBB38_2
	b	LBB38_1
LBB38_1:
	adrp	x0, l_.str.39@PAGE
	add	x0, x0, l_.str.39@PAGEOFF
	bl	_perror
	mov	w0, #1
	bl	_exit
LBB38_2:
	bl	__ZL7get_tscv
	mov	x8, x0
	ldr	x0, [sp, #24]                   ; 8-byte Folded Reload
	stur	x8, [x29, #-16]
	ldur	x8, [x29, #-16]
	str	x8, [x0, #128]
	bl	__ZN6logger12cur_time_strEv
	mov	x8, x0
	ldr	x0, [sp, #24]                   ; 8-byte Folded Reload
	mov	x9, sp
	str	x8, [x9]
	mov	w1, #2
	adrp	x2, l_.str.40@PAGE
	add	x2, x2, l_.str.40@PAGEOFF
	bl	__ZN6logger3logEiPKcz
	ldr	x0, [sp, #24]                   ; 8-byte Folded Reload
	bl	__ZN6logger7log_optEv
	ldr	x0, [sp, #24]                   ; 8-byte Folded Reload
	bl	__ZN6logger8log_hostEv
	ldr	x0, [sp, #24]                   ; 8-byte Folded Reload
	bl	__ZN6logger8log_envsEv
	mov	w0, #1
	.cfi_def_cfa wsp, 64
	ldp	x29, x30, [sp, #48]             ; 16-byte Folded Reload
	add	sp, sp, #64
	.cfi_def_cfa_offset 0
	.cfi_restore w30
	.cfi_restore w29
	ret
	.cfi_endproc
                                        ; -- End function
	.section	__TEXT,__literal8,8byte_literals
	.p2align	3                               ; -- Begin function _ZN13mnist_datasetILi64ELi1ELi28ELi28EE4loadER6loggerPKclffi
lCPI39_0:
	.quad	0x406fe00000000000              ; double 255
	.section	__TEXT,__text,regular,pure_instructions
	.globl	__ZN13mnist_datasetILi64ELi1ELi28ELi28EE4loadER6loggerPKclffi
	.weak_definition	__ZN13mnist_datasetILi64ELi1ELi28ELi28EE4loadER6loggerPKclffi
	.p2align	2
__ZN13mnist_datasetILi64ELi1ELi28ELi28EE4loadER6loggerPKclffi: ; @_ZN13mnist_datasetILi64ELi1ELi28ELi28EE4loadER6loggerPKclffi
	.cfi_startproc
; %bb.0:
	stp	x28, x27, [sp, #-32]!           ; 16-byte Folded Spill
	.cfi_def_cfa_offset 32
	stp	x29, x30, [sp, #16]             ; 16-byte Folded Spill
	add	x29, sp, #16
	.cfi_def_cfa w29, 16
	.cfi_offset w30, -8
	.cfi_offset w29, -16
	.cfi_offset w27, -24
	.cfi_offset w28, -32
	sub	sp, sp, #304
	adrp	x8, ___stack_chk_guard@GOTPAGE
	ldr	x8, [x8, ___stack_chk_guard@GOTPAGEOFF]
	ldr	x8, [x8]
	stur	x8, [x29, #-24]
	stur	x0, [x29, #-32]
	stur	x1, [x29, #-40]
	stur	x2, [x29, #-48]
	stur	x3, [x29, #-56]
	stur	s0, [x29, #-60]
	stur	s1, [x29, #-64]
	stur	w4, [x29, #-68]
	ldur	x8, [x29, #-32]
	sub	x9, x29, #16
	stur	x8, [x9, #-256]                 ; 8-byte Folded Spill
	ldur	x0, [x29, #-40]
	ldur	x8, [x29, #-48]
	sub	sp, sp, #16
	mov	x9, sp
	str	x8, [x9]
	mov	w1, #1
	adrp	x2, l_.str.90@PAGE
	add	x2, x2, l_.str.90@PAGEOFF
	bl	__ZN6logger3logEiPKcz
	add	sp, sp, #16
	ldur	x0, [x29, #-48]
	bl	_strlen
	stur	x0, [x29, #-80]
	ldur	x8, [x29, #-80]
	add	x1, x8, #100
	stur	x1, [x29, #-240]                ; 8-byte Folded Spill
	mov	x8, sp
	stur	x8, [x29, #-88]
	lsr	x8, x1, #0
	add	x8, x8, #15
	and	x9, x8, #0xfffffffffffffff0
	mov	x8, sp
	subs	x0, x8, x9
	sub	x8, x29, #8
	stur	x0, [x8, #-256]                 ; 8-byte Folded Spill
	mov	sp, x0
	stur	x1, [x29, #-96]
	ldur	x8, [x29, #-80]
	add	x8, x8, #100
	stur	x8, [x29, #-256]                ; 8-byte Folded Spill
	lsr	x9, x8, #0
	add	x9, x9, #15
	and	x10, x9, #0xfffffffffffffff0
	mov	x9, sp
	subs	x2, x9, x10
	stur	x2, [x29, #-248]                ; 8-byte Folded Spill
	mov	sp, x2
	stur	x8, [x29, #-104]
	ldur	x10, [x29, #-48]
	ldur	w8, [x29, #-68]
	subs	w8, w8, #0
	cset	w8, ne
	and	w11, w8, #0x1
	adrp	x9, l_.str.93@PAGE
	add	x9, x9, l_.str.93@PAGEOFF
	adrp	x8, l_.str.92@PAGE
	add	x8, x8, l_.str.92@PAGEOFF
	ands	w11, w11, #0x1
	csel	x8, x8, x9, ne
	sub	sp, sp, #16
	mov	x9, sp
	str	x10, [x9]
	str	x8, [x9, #8]
	adrp	x2, l_.str.91@PAGE
	add	x2, x2, l_.str.91@PAGEOFF
	bl	_snprintf
	ldur	x9, [x29, #-240]                ; 8-byte Folded Reload
	add	sp, sp, #16
	stur	w0, [x29, #-108]
	ldur	w8, [x29, #-108]
                                        ; kill: def $w9 killed $w9 killed $x9
	subs	w8, w8, w9
	cset	w8, lt
	tbnz	w8, #0, LBB39_2
	b	LBB39_1
LBB39_1:
	adrp	x0, l___func__._ZN13mnist_datasetILi64ELi1ELi28ELi28EE4loadER6loggerPKclffi@PAGE
	add	x0, x0, l___func__._ZN13mnist_datasetILi64ELi1ELi28ELi28EE4loadER6loggerPKclffi@PAGEOFF
	adrp	x1, l_.str.94@PAGE
	add	x1, x1, l_.str.94@PAGEOFF
	mov	w2, #146
	adrp	x3, l_.str.95@PAGE
	add	x3, x3, l_.str.95@PAGEOFF
	bl	___assert_rtn
LBB39_2:
	b	LBB39_3
LBB39_3:
	ldur	x1, [x29, #-256]                ; 8-byte Folded Reload
	ldur	x0, [x29, #-248]                ; 8-byte Folded Reload
	ldur	x10, [x29, #-48]
	ldur	w8, [x29, #-68]
	subs	w8, w8, #0
	cset	w8, ne
	and	w11, w8, #0x1
	adrp	x9, l_.str.93@PAGE
	add	x9, x9, l_.str.93@PAGEOFF
	adrp	x8, l_.str.92@PAGE
	add	x8, x8, l_.str.92@PAGEOFF
	ands	w11, w11, #0x1
	csel	x8, x8, x9, ne
	sub	sp, sp, #16
	mov	x9, sp
	str	x10, [x9]
	str	x8, [x9, #8]
	adrp	x2, l_.str.96@PAGE
	add	x2, x2, l_.str.96@PAGEOFF
	bl	_snprintf
	ldur	x9, [x29, #-256]                ; 8-byte Folded Reload
	add	sp, sp, #16
	stur	w0, [x29, #-108]
	ldur	w8, [x29, #-108]
	subs	w8, w8, w9
	cset	w8, lt
	tbnz	w8, #0, LBB39_5
	b	LBB39_4
LBB39_4:
	adrp	x0, l___func__._ZN13mnist_datasetILi64ELi1ELi28ELi28EE4loadER6loggerPKclffi@PAGE
	add	x0, x0, l___func__._ZN13mnist_datasetILi64ELi1ELi28ELi28EE4loadER6loggerPKclffi@PAGEOFF
	adrp	x1, l_.str.94@PAGE
	add	x1, x1, l_.str.94@PAGEOFF
	mov	w2, #149
	adrp	x3, l_.str.97@PAGE
	add	x3, x3, l_.str.97@PAGEOFF
	bl	___assert_rtn
LBB39_5:
	b	LBB39_6
LBB39_6:
	sub	x8, x29, #8
	ldur	x0, [x8, #-256]                 ; 8-byte Folded Reload
	sub	x8, x29, #144
	bl	__ZL26read_pascal_vincent_formatPKc
	ldur	x0, [x29, #-248]                ; 8-byte Folded Reload
	sub	x8, x29, #176
	bl	__ZL26read_pascal_vincent_formatPKc
	ldur	w8, [x29, #-176]
	subs	w8, w8, #1
	cset	w8, eq
	tbnz	w8, #0, LBB39_8
	b	LBB39_7
LBB39_7:
	adrp	x0, l___func__._ZN13mnist_datasetILi64ELi1ELi28ELi28EE4loadER6loggerPKclffi@PAGE
	add	x0, x0, l___func__._ZN13mnist_datasetILi64ELi1ELi28ELi28EE4loadER6loggerPKclffi@PAGEOFF
	adrp	x1, l_.str.94@PAGE
	add	x1, x1, l_.str.94@PAGEOFF
	mov	w2, #152
	adrp	x3, l_.str.98@PAGE
	add	x3, x3, l_.str.98@PAGEOFF
	bl	___assert_rtn
LBB39_8:
	b	LBB39_9
LBB39_9:
	sub	x8, x29, #16
	ldur	x9, [x8, #-256]                 ; 8-byte Folded Reload
	ldur	x8, [x29, #-168]
	ldrsw	x8, [x8]
	str	x8, [x9, #8]
	ldursw	x8, [x29, #-144]
	stur	x8, [x29, #-184]
	ldur	x8, [x29, #-184]
	subs	x8, x8, #3
	cset	w8, eq
	mov	w9, #1
	sub	x10, x29, #20
	stur	w9, [x10, #-256]                ; 4-byte Folded Spill
	tbnz	w8, #0, LBB39_11
	b	LBB39_10
LBB39_10:
	ldur	x8, [x29, #-184]
	subs	x8, x8, #4
	cset	w8, eq
	sub	x9, x29, #20
	stur	w8, [x9, #-256]                 ; 4-byte Folded Spill
	b	LBB39_11
LBB39_11:
	sub	x8, x29, #20
	ldur	w8, [x8, #-256]                 ; 4-byte Folded Reload
	tbnz	w8, #0, LBB39_13
	b	LBB39_12
LBB39_12:
	adrp	x0, l___func__._ZN13mnist_datasetILi64ELi1ELi28ELi28EE4loadER6loggerPKclffi@PAGE
	add	x0, x0, l___func__._ZN13mnist_datasetILi64ELi1ELi28ELi28EE4loadER6loggerPKclffi@PAGEOFF
	adrp	x1, l_.str.94@PAGE
	add	x1, x1, l_.str.94@PAGEOFF
	mov	w2, #156
	adrp	x3, l_.str.99@PAGE
	add	x3, x3, l_.str.99@PAGEOFF
	bl	___assert_rtn
LBB39_13:
	b	LBB39_14
LBB39_14:
	sub	x8, x29, #16
	ldur	x9, [x8, #-256]                 ; 8-byte Folded Reload
	ldur	x8, [x29, #-136]
	ldrsw	x8, [x8]
	ldr	x9, [x9, #8]
	subs	x8, x8, x9
	cset	w8, eq
	tbnz	w8, #0, LBB39_16
	b	LBB39_15
LBB39_15:
	adrp	x0, l___func__._ZN13mnist_datasetILi64ELi1ELi28ELi28EE4loadER6loggerPKclffi@PAGE
	add	x0, x0, l___func__._ZN13mnist_datasetILi64ELi1ELi28ELi28EE4loadER6loggerPKclffi@PAGEOFF
	adrp	x1, l_.str.94@PAGE
	add	x1, x1, l_.str.94@PAGEOFF
	mov	w2, #157
	adrp	x3, l_.str.100@PAGE
	add	x3, x3, l_.str.100@PAGEOFF
	bl	___assert_rtn
LBB39_16:
	b	LBB39_17
LBB39_17:
	ldur	x8, [x29, #-136]
	ldur	x9, [x29, #-184]
	subs	x9, x9, #2
	ldr	w8, [x8, x9, lsl #2]
	subs	w8, w8, #28
	cset	w8, eq
	tbnz	w8, #0, LBB39_19
	b	LBB39_18
LBB39_18:
	adrp	x0, l___func__._ZN13mnist_datasetILi64ELi1ELi28ELi28EE4loadER6loggerPKclffi@PAGE
	add	x0, x0, l___func__._ZN13mnist_datasetILi64ELi1ELi28ELi28EE4loadER6loggerPKclffi@PAGEOFF
	adrp	x1, l_.str.94@PAGE
	add	x1, x1, l_.str.94@PAGEOFF
	mov	w2, #158
	adrp	x3, l_.str.101@PAGE
	add	x3, x3, l_.str.101@PAGEOFF
	bl	___assert_rtn
LBB39_19:
	b	LBB39_20
LBB39_20:
	ldur	x8, [x29, #-136]
	ldur	x9, [x29, #-184]
	subs	x9, x9, #1
	ldr	w8, [x8, x9, lsl #2]
	subs	w8, w8, #28
	cset	w8, eq
	tbnz	w8, #0, LBB39_22
	b	LBB39_21
LBB39_21:
	adrp	x0, l___func__._ZN13mnist_datasetILi64ELi1ELi28ELi28EE4loadER6loggerPKclffi@PAGE
	add	x0, x0, l___func__._ZN13mnist_datasetILi64ELi1ELi28ELi28EE4loadER6loggerPKclffi@PAGEOFF
	adrp	x1, l_.str.94@PAGE
	add	x1, x1, l_.str.94@PAGEOFF
	mov	w2, #159
	adrp	x3, l_.str.102@PAGE
	add	x3, x3, l_.str.102@PAGEOFF
	bl	___assert_rtn
LBB39_22:
	b	LBB39_23
LBB39_23:
	sub	x8, x29, #16
	ldur	x9, [x8, #-256]                 ; 8-byte Folded Reload
	ldur	x8, [x29, #-128]
	ldr	x9, [x9, #8]
	lsr	x9, x9, #0
	mov	x10, #28
	mul	x9, x9, x10
	mul	x9, x9, x10
	subs	x8, x8, x9
	cset	w8, eq
	tbnz	w8, #0, LBB39_25
	b	LBB39_24
LBB39_24:
	adrp	x0, l___func__._ZN13mnist_datasetILi64ELi1ELi28ELi28EE4loadER6loggerPKclffi@PAGE
	add	x0, x0, l___func__._ZN13mnist_datasetILi64ELi1ELi28ELi28EE4loadER6loggerPKclffi@PAGEOFF
	adrp	x1, l_.str.94@PAGE
	add	x1, x1, l_.str.94@PAGEOFF
	mov	w2, #160
	adrp	x3, l_.str.103@PAGE
	add	x3, x3, l_.str.103@PAGEOFF
	bl	___assert_rtn
LBB39_25:
	b	LBB39_26
LBB39_26:
	sub	x8, x29, #16
	ldur	x8, [x8, #-256]                 ; 8-byte Folded Reload
	ldr	x8, [x8, #8]
	mov	x10, #3928
	umulh	x9, x8, x10
	mul	x8, x8, x10
	subs	x9, x9, #0
	cset	w9, ne
	and	w9, w9, #0x1
	ands	w9, w9, #0x1
	csinv	x0, x8, xzr, eq
	bl	__Znam
	sub	x8, x29, #16
	ldur	x8, [x8, #-256]                 ; 8-byte Folded Reload
	str	x0, [x8, #16]
	ldur	x8, [x29, #-120]
	stur	x8, [x29, #-192]
	ldur	x8, [x29, #-152]
	stur	x8, [x29, #-200]
	stur	wzr, [x29, #-204]
	b	LBB39_27
LBB39_27:                               ; =>This Loop Header: Depth=1
                                        ;     Child Loop BB39_29 Depth 2
                                        ;       Child Loop BB39_31 Depth 3
                                        ;         Child Loop BB39_33 Depth 4
	sub	x8, x29, #16
	ldur	x9, [x8, #-256]                 ; 8-byte Folded Reload
	ldursw	x8, [x29, #-204]
	ldr	x9, [x9, #8]
	subs	x8, x8, x9
	cset	w8, ge
	tbnz	w8, #0, LBB39_42
	b	LBB39_28
LBB39_28:                               ;   in Loop: Header=BB39_27 Depth=1
	sub	x8, x29, #16
	ldur	x9, [x8, #-256]                 ; 8-byte Folded Reload
	ldur	w8, [x29, #-204]
	ldr	x10, [x9, #16]
	ldursw	x12, [x29, #-204]
	mov	x11, #3928
	mul	x12, x12, x11
	str	w8, [x10, x12]
	ldur	x8, [x29, #-200]
	ldursw	x10, [x29, #-204]
	add	x8, x8, x10
	ldrb	w8, [x8]
	ldr	x9, [x9, #16]
	ldursw	x10, [x29, #-204]
	mul	x10, x10, x11
	add	x9, x9, x10
	strb	w8, [x9, #3924]
	stur	wzr, [x29, #-208]
	b	LBB39_29
LBB39_29:                               ;   Parent Loop BB39_27 Depth=1
                                        ; =>  This Loop Header: Depth=2
                                        ;       Child Loop BB39_31 Depth 3
                                        ;         Child Loop BB39_33 Depth 4
	ldur	w8, [x29, #-208]
	subs	w8, w8, #1
	cset	w8, ge
	tbnz	w8, #0, LBB39_40
	b	LBB39_30
LBB39_30:                               ;   in Loop: Header=BB39_29 Depth=2
	stur	wzr, [x29, #-212]
	b	LBB39_31
LBB39_31:                               ;   Parent Loop BB39_27 Depth=1
                                        ;     Parent Loop BB39_29 Depth=2
                                        ; =>    This Loop Header: Depth=3
                                        ;         Child Loop BB39_33 Depth 4
	ldur	w8, [x29, #-212]
	subs	w8, w8, #28
	cset	w8, ge
	tbnz	w8, #0, LBB39_38
	b	LBB39_32
LBB39_32:                               ;   in Loop: Header=BB39_31 Depth=3
	stur	wzr, [x29, #-216]
	b	LBB39_33
LBB39_33:                               ;   Parent Loop BB39_27 Depth=1
                                        ;     Parent Loop BB39_29 Depth=2
                                        ;       Parent Loop BB39_31 Depth=3
                                        ; =>      This Inner Loop Header: Depth=4
	ldur	w8, [x29, #-216]
	subs	w8, w8, #28
	cset	w8, ge
	tbnz	w8, #0, LBB39_36
	b	LBB39_34
LBB39_34:                               ;   in Loop: Header=BB39_33 Depth=4
	sub	x8, x29, #16
	ldur	x8, [x8, #-256]                 ; 8-byte Folded Reload
	ldur	x9, [x29, #-192]
	ldursw	x10, [x29, #-204]
	mov	x14, #784
	mul	x10, x10, x14
	add	x9, x9, x10
	ldursw	x10, [x29, #-208]
	mul	x10, x10, x14
	add	x9, x9, x10
	ldursw	x10, [x29, #-212]
	mov	x13, #28
	mul	x10, x10, x13
	add	x9, x9, x10
	ldursw	x10, [x29, #-216]
	add	x9, x9, x10
	ldrb	w9, [x9]
	sturb	w9, [x29, #-217]
	ldurb	w9, [x29, #-217]
	ldr	x11, [x8, #16]
	ldursw	x12, [x29, #-204]
	mov	x10, #3928
	mul	x12, x12, x10
	add	x11, x11, x12
	add	x11, x11, #4
	ldursw	x12, [x29, #-208]
	mul	x12, x12, x14
	add	x11, x11, x12
	ldursw	x12, [x29, #-212]
	mul	x12, x12, x13
	add	x11, x11, x12
	ldursw	x12, [x29, #-216]
	add	x11, x11, x12
	strb	w9, [x11]
	ldurb	w9, [x29, #-217]
	scvtf	d0, w9
	adrp	x9, lCPI39_0@PAGE
	ldr	d1, [x9, lCPI39_0@PAGEOFF]
	fdiv	d0, d0, d1
	ldur	s1, [x29, #-60]
	fcvt	d1, s1
	fsub	d0, d0, d1
	ldur	s1, [x29, #-64]
	fcvt	d1, s1
	fdiv	d0, d0, d1
	fcvt	s0, d0
	sub	x9, x29, #24
	stur	s0, [x9, #-256]                 ; 4-byte Folded Spill
	ldr	x8, [x8, #16]
	ldursw	x9, [x29, #-204]
	mul	x9, x9, x10
	add	x0, x8, x9
	ldur	w1, [x29, #-208]
	ldur	w2, [x29, #-212]
	ldur	w3, [x29, #-216]
	bl	__ZN9data_itemILi1ELi28ELi28EEclEiii
	sub	x8, x29, #24
	ldur	s0, [x8, #-256]                 ; 4-byte Folded Reload
	str	s0, [x0]
	b	LBB39_35
LBB39_35:                               ;   in Loop: Header=BB39_33 Depth=4
	ldur	w8, [x29, #-216]
	add	w8, w8, #1
	stur	w8, [x29, #-216]
	b	LBB39_33
LBB39_36:                               ;   in Loop: Header=BB39_31 Depth=3
	b	LBB39_37
LBB39_37:                               ;   in Loop: Header=BB39_31 Depth=3
	ldur	w8, [x29, #-212]
	add	w8, w8, #1
	stur	w8, [x29, #-212]
	b	LBB39_31
LBB39_38:                               ;   in Loop: Header=BB39_29 Depth=2
	b	LBB39_39
LBB39_39:                               ;   in Loop: Header=BB39_29 Depth=2
	ldur	w8, [x29, #-208]
	add	w8, w8, #1
	stur	w8, [x29, #-208]
	b	LBB39_29
LBB39_40:                               ;   in Loop: Header=BB39_27 Depth=1
	b	LBB39_41
LBB39_41:                               ;   in Loop: Header=BB39_27 Depth=1
	ldur	w8, [x29, #-204]
	add	w8, w8, #1
	stur	w8, [x29, #-204]
	b	LBB39_27
LBB39_42:
	ldur	x8, [x29, #-56]
	subs	x8, x8, #0
	cset	w8, ge
	tbnz	w8, #0, LBB39_44
	b	LBB39_43
LBB39_43:
	sub	x8, x29, #16
	ldur	x8, [x8, #-256]                 ; 8-byte Folded Reload
	ldr	x8, [x8, #8]
	sub	x9, x29, #32
	stur	x8, [x9, #-256]                 ; 8-byte Folded Spill
	b	LBB39_45
LBB39_44:
	sub	x8, x29, #16
	ldur	x8, [x8, #-256]                 ; 8-byte Folded Reload
	ldr	x8, [x8, #8]
	mov	x0, x8
	ldur	x8, [x29, #-56]
	mov	x1, x8
	bl	__ZL5min_iii
                                        ; implicit-def: $x8
	mov	x8, x0
	sxtw	x8, w8
	sub	x9, x29, #32
	stur	x8, [x9, #-256]                 ; 8-byte Folded Spill
	b	LBB39_45
LBB39_45:
	sub	x8, x29, #16
	ldur	x8, [x8, #-256]                 ; 8-byte Folded Reload
	sub	x9, x29, #32
	ldur	x9, [x9, #-256]                 ; 8-byte Folded Reload
	stur	x9, [x29, #-232]
	ldur	x0, [x29, #-40]
	ldur	x10, [x29, #-232]
	ldr	x8, [x8, #8]
	sub	sp, sp, #16
	mov	x9, sp
	str	x10, [x9]
	str	x8, [x9, #8]
	mov	w1, #1
	adrp	x2, l_.str.104@PAGE
	add	x2, x2, l_.str.104@PAGEOFF
	bl	__ZN6logger3logEiPKcz
	sub	x8, x29, #16
	ldur	x8, [x8, #-256]                 ; 8-byte Folded Reload
	add	sp, sp, #16
	ldur	x9, [x29, #-232]
	str	x9, [x8, #8]
	str	xzr, [x8]
	ldur	x0, [x29, #-120]
	bl	_free
	ldur	x8, [x29, #-136]
	sub	x9, x29, #40
	stur	x8, [x9, #-256]                 ; 8-byte Folded Spill
	subs	x8, x8, #0
	cset	w8, eq
	tbnz	w8, #0, LBB39_47
	b	LBB39_46
LBB39_46:
	sub	x8, x29, #40
	ldur	x0, [x8, #-256]                 ; 8-byte Folded Reload
	bl	__ZdaPv
	b	LBB39_47
LBB39_47:
	ldur	x0, [x29, #-152]
	bl	_free
	ldur	x8, [x29, #-168]
	sub	x9, x29, #48
	stur	x8, [x9, #-256]                 ; 8-byte Folded Spill
	subs	x8, x8, #0
	cset	w8, eq
	tbnz	w8, #0, LBB39_49
	b	LBB39_48
LBB39_48:
	sub	x8, x29, #48
	ldur	x0, [x8, #-256]                 ; 8-byte Folded Reload
	bl	__ZdaPv
	b	LBB39_49
LBB39_49:
	ldur	x8, [x29, #-88]
	sub	x9, x29, #56
	stur	x8, [x9, #-256]                 ; 8-byte Folded Spill
	ldur	x9, [x29, #-24]
	adrp	x8, ___stack_chk_guard@GOTPAGE
	ldr	x8, [x8, ___stack_chk_guard@GOTPAGEOFF]
	ldr	x8, [x8]
	subs	x8, x8, x9
	cset	w8, eq
	tbnz	w8, #0, LBB39_51
	b	LBB39_50
LBB39_50:
	bl	___stack_chk_fail
LBB39_51:
	sub	x8, x29, #56
	ldur	x8, [x8, #-256]                 ; 8-byte Folded Reload
	mov	sp, x8
	mov	w0, #1
	sub	sp, x29, #16
	.cfi_def_cfa wsp, 32
	ldp	x29, x30, [sp, #16]             ; 16-byte Folded Reload
	ldp	x28, x27, [sp], #32             ; 16-byte Folded Reload
	.cfi_def_cfa_offset 0
	.cfi_restore w30
	.cfi_restore w29
	.cfi_restore w27
	.cfi_restore w28
	ret
	.cfi_endproc
                                        ; -- End function
	.globl	__ZN6tensorIfLi64ELi1ELi28ELi28EE10init_constEif ; -- Begin function _ZN6tensorIfLi64ELi1ELi28ELi28EE10init_constEif
	.weak_definition	__ZN6tensorIfLi64ELi1ELi28ELi28EE10init_constEif
	.p2align	2
__ZN6tensorIfLi64ELi1ELi28ELi28EE10init_constEif: ; @_ZN6tensorIfLi64ELi1ELi28ELi28EE10init_constEif
	.cfi_startproc
; %bb.0:
	sub	sp, sp, #80
	.cfi_def_cfa_offset 80
	stp	x29, x30, [sp, #64]             ; 16-byte Folded Spill
	add	x29, sp, #64
	.cfi_def_cfa w29, 16
	.cfi_offset w30, -8
	.cfi_offset w29, -16
	stur	x0, [x29, #-8]
	stur	w1, [x29, #-12]
	stur	s0, [x29, #-16]
	ldur	x0, [x29, #-8]
	str	x0, [sp, #16]                   ; 8-byte Folded Spill
	ldur	w1, [x29, #-12]
	bl	__ZN6tensorIfLi64ELi1ELi28ELi28EE6set_n0Ei
	ldr	x8, [sp, #16]                   ; 8-byte Folded Reload
	stur	x8, [x29, #-24]
	; InlineAsm Start
	; init_const begins N0=64 N1=1 N2=28 N3=28
	; InlineAsm End
	stur	wzr, [x29, #-28]
	b	LBB40_1
LBB40_1:                                ; =>This Loop Header: Depth=1
                                        ;     Child Loop BB40_3 Depth 2
                                        ;       Child Loop BB40_5 Depth 3
                                        ;         Child Loop BB40_7 Depth 4
	ldur	w8, [x29, #-28]
	ldur	w9, [x29, #-12]
	subs	w8, w8, w9
	cset	w8, ge
	tbnz	w8, #0, LBB40_16
	b	LBB40_2
LBB40_2:                                ;   in Loop: Header=BB40_1 Depth=1
	str	wzr, [sp, #32]
	b	LBB40_3
LBB40_3:                                ;   Parent Loop BB40_1 Depth=1
                                        ; =>  This Loop Header: Depth=2
                                        ;       Child Loop BB40_5 Depth 3
                                        ;         Child Loop BB40_7 Depth 4
	ldr	w8, [sp, #32]
	subs	w8, w8, #1
	cset	w8, ge
	tbnz	w8, #0, LBB40_14
	b	LBB40_4
LBB40_4:                                ;   in Loop: Header=BB40_3 Depth=2
	str	wzr, [sp, #28]
	b	LBB40_5
LBB40_5:                                ;   Parent Loop BB40_1 Depth=1
                                        ;     Parent Loop BB40_3 Depth=2
                                        ; =>    This Loop Header: Depth=3
                                        ;         Child Loop BB40_7 Depth 4
	ldr	w8, [sp, #28]
	subs	w8, w8, #28
	cset	w8, ge
	tbnz	w8, #0, LBB40_12
	b	LBB40_6
LBB40_6:                                ;   in Loop: Header=BB40_5 Depth=3
	str	wzr, [sp, #24]
	b	LBB40_7
LBB40_7:                                ;   Parent Loop BB40_1 Depth=1
                                        ;     Parent Loop BB40_3 Depth=2
                                        ;       Parent Loop BB40_5 Depth=3
                                        ; =>      This Inner Loop Header: Depth=4
	ldr	w8, [sp, #24]
	subs	w8, w8, #28
	cset	w8, ge
	tbnz	w8, #0, LBB40_10
	b	LBB40_8
LBB40_8:                                ;   in Loop: Header=BB40_7 Depth=4
	ldur	w8, [x29, #-16]
	str	w8, [sp, #12]                   ; 4-byte Folded Spill
	ldur	x0, [x29, #-24]
	ldur	w1, [x29, #-28]
	ldr	w2, [sp, #32]
	ldr	w3, [sp, #28]
	ldr	w4, [sp, #24]
	bl	__ZN6tensorIfLi64ELi1ELi28ELi28EEclEiiii
	ldr	w8, [sp, #12]                   ; 4-byte Folded Reload
	str	w8, [x0]
	b	LBB40_9
LBB40_9:                                ;   in Loop: Header=BB40_7 Depth=4
	ldr	w8, [sp, #24]
	add	w8, w8, #1
	str	w8, [sp, #24]
	b	LBB40_7
LBB40_10:                               ;   in Loop: Header=BB40_5 Depth=3
	b	LBB40_11
LBB40_11:                               ;   in Loop: Header=BB40_5 Depth=3
	ldr	w8, [sp, #28]
	add	w8, w8, #1
	str	w8, [sp, #28]
	b	LBB40_5
LBB40_12:                               ;   in Loop: Header=BB40_3 Depth=2
	b	LBB40_13
LBB40_13:                               ;   in Loop: Header=BB40_3 Depth=2
	ldr	w8, [sp, #32]
	add	w8, w8, #1
	str	w8, [sp, #32]
	b	LBB40_3
LBB40_14:                               ;   in Loop: Header=BB40_1 Depth=1
	b	LBB40_15
LBB40_15:                               ;   in Loop: Header=BB40_1 Depth=1
	ldur	w8, [x29, #-28]
	add	w8, w8, #1
	stur	w8, [x29, #-28]
	b	LBB40_1
LBB40_16:
	; InlineAsm Start
	; init_const ends N0=64 N1=1 N2=28 N3=28
	; InlineAsm End
	.cfi_def_cfa wsp, 80
	ldp	x29, x30, [sp, #64]             ; 16-byte Folded Reload
	add	sp, sp, #80
	.cfi_def_cfa_offset 0
	.cfi_restore w30
	.cfi_restore w29
	ret
	.cfi_endproc
                                        ; -- End function
	.globl	__ZN6tensorIiLi64ELi1ELi1ELi1EE10init_constEii ; -- Begin function _ZN6tensorIiLi64ELi1ELi1ELi1EE10init_constEii
	.weak_definition	__ZN6tensorIiLi64ELi1ELi1ELi1EE10init_constEii
	.p2align	2
__ZN6tensorIiLi64ELi1ELi1ELi1EE10init_constEii: ; @_ZN6tensorIiLi64ELi1ELi1ELi1EE10init_constEii
	.cfi_startproc
; %bb.0:
	sub	sp, sp, #80
	.cfi_def_cfa_offset 80
	stp	x29, x30, [sp, #64]             ; 16-byte Folded Spill
	add	x29, sp, #64
	.cfi_def_cfa w29, 16
	.cfi_offset w30, -8
	.cfi_offset w29, -16
	stur	x0, [x29, #-8]
	stur	w1, [x29, #-12]
	stur	w2, [x29, #-16]
	ldur	x0, [x29, #-8]
	str	x0, [sp, #16]                   ; 8-byte Folded Spill
	ldur	w1, [x29, #-12]
	bl	__ZN6tensorIiLi64ELi1ELi1ELi1EE6set_n0Ei
	ldr	x8, [sp, #16]                   ; 8-byte Folded Reload
	stur	x8, [x29, #-24]
	; InlineAsm Start
	; init_const begins N0=64 N1=1 N2=1 N3=1
	; InlineAsm End
	stur	wzr, [x29, #-28]
	b	LBB41_1
LBB41_1:                                ; =>This Loop Header: Depth=1
                                        ;     Child Loop BB41_3 Depth 2
                                        ;       Child Loop BB41_5 Depth 3
                                        ;         Child Loop BB41_7 Depth 4
	ldur	w8, [x29, #-28]
	ldur	w9, [x29, #-12]
	subs	w8, w8, w9
	cset	w8, ge
	tbnz	w8, #0, LBB41_16
	b	LBB41_2
LBB41_2:                                ;   in Loop: Header=BB41_1 Depth=1
	str	wzr, [sp, #32]
	b	LBB41_3
LBB41_3:                                ;   Parent Loop BB41_1 Depth=1
                                        ; =>  This Loop Header: Depth=2
                                        ;       Child Loop BB41_5 Depth 3
                                        ;         Child Loop BB41_7 Depth 4
	ldr	w8, [sp, #32]
	subs	w8, w8, #1
	cset	w8, ge
	tbnz	w8, #0, LBB41_14
	b	LBB41_4
LBB41_4:                                ;   in Loop: Header=BB41_3 Depth=2
	str	wzr, [sp, #28]
	b	LBB41_5
LBB41_5:                                ;   Parent Loop BB41_1 Depth=1
                                        ;     Parent Loop BB41_3 Depth=2
                                        ; =>    This Loop Header: Depth=3
                                        ;         Child Loop BB41_7 Depth 4
	ldr	w8, [sp, #28]
	subs	w8, w8, #1
	cset	w8, ge
	tbnz	w8, #0, LBB41_12
	b	LBB41_6
LBB41_6:                                ;   in Loop: Header=BB41_5 Depth=3
	str	wzr, [sp, #24]
	b	LBB41_7
LBB41_7:                                ;   Parent Loop BB41_1 Depth=1
                                        ;     Parent Loop BB41_3 Depth=2
                                        ;       Parent Loop BB41_5 Depth=3
                                        ; =>      This Inner Loop Header: Depth=4
	ldr	w8, [sp, #24]
	subs	w8, w8, #1
	cset	w8, ge
	tbnz	w8, #0, LBB41_10
	b	LBB41_8
LBB41_8:                                ;   in Loop: Header=BB41_7 Depth=4
	ldur	w8, [x29, #-16]
	str	w8, [sp, #12]                   ; 4-byte Folded Spill
	ldur	x0, [x29, #-24]
	ldur	w1, [x29, #-28]
	ldr	w2, [sp, #32]
	ldr	w3, [sp, #28]
	ldr	w4, [sp, #24]
	bl	__ZN6tensorIiLi64ELi1ELi1ELi1EEclEiiii
	ldr	w8, [sp, #12]                   ; 4-byte Folded Reload
	str	w8, [x0]
	b	LBB41_9
LBB41_9:                                ;   in Loop: Header=BB41_7 Depth=4
	ldr	w8, [sp, #24]
	add	w8, w8, #1
	str	w8, [sp, #24]
	b	LBB41_7
LBB41_10:                               ;   in Loop: Header=BB41_5 Depth=3
	b	LBB41_11
LBB41_11:                               ;   in Loop: Header=BB41_5 Depth=3
	ldr	w8, [sp, #28]
	add	w8, w8, #1
	str	w8, [sp, #28]
	b	LBB41_5
LBB41_12:                               ;   in Loop: Header=BB41_3 Depth=2
	b	LBB41_13
LBB41_13:                               ;   in Loop: Header=BB41_3 Depth=2
	ldr	w8, [sp, #32]
	add	w8, w8, #1
	str	w8, [sp, #32]
	b	LBB41_3
LBB41_14:                               ;   in Loop: Header=BB41_1 Depth=1
	b	LBB41_15
LBB41_15:                               ;   in Loop: Header=BB41_1 Depth=1
	ldur	w8, [x29, #-28]
	add	w8, w8, #1
	stur	w8, [x29, #-28]
	b	LBB41_1
LBB41_16:
	; InlineAsm Start
	; init_const ends N0=64 N1=1 N2=1 N3=1
	; InlineAsm End
	.cfi_def_cfa wsp, 80
	ldp	x29, x30, [sp, #64]             ; 16-byte Folded Reload
	add	sp, sp, #80
	.cfi_def_cfa_offset 0
	.cfi_restore w30
	.cfi_restore w29
	ret
	.cfi_endproc
                                        ; -- End function
	.globl	__ZN13mnist_datasetILi64ELi1ELi28ELi28EE8get_dataER6tensorIfLi64ELi1ELi28ELi28EERS1_IiLi64ELi1ELi1ELi1EES5_ii ; -- Begin function _ZN13mnist_datasetILi64ELi1ELi28ELi28EE8get_dataER6tensorIfLi64ELi1ELi28ELi28EERS1_IiLi64ELi1ELi1ELi1EES5_ii
	.weak_definition	__ZN13mnist_datasetILi64ELi1ELi28ELi28EE8get_dataER6tensorIfLi64ELi1ELi28ELi28EERS1_IiLi64ELi1ELi1ELi1EES5_ii
	.p2align	2
__ZN13mnist_datasetILi64ELi1ELi28ELi28EE8get_dataER6tensorIfLi64ELi1ELi28ELi28EERS1_IiLi64ELi1ELi1ELi1EES5_ii: ; @_ZN13mnist_datasetILi64ELi1ELi28ELi28EE8get_dataER6tensorIfLi64ELi1ELi28ELi28EERS1_IiLi64ELi1ELi1ELi1EES5_ii
	.cfi_startproc
; %bb.0:
	sub	sp, sp, #144
	.cfi_def_cfa_offset 144
	stp	x29, x30, [sp, #128]            ; 16-byte Folded Spill
	add	x29, sp, #128
	.cfi_def_cfa w29, 16
	.cfi_offset w30, -8
	.cfi_offset w29, -16
	stur	x0, [x29, #-8]
	stur	x1, [x29, #-16]
	stur	x2, [x29, #-24]
	stur	x3, [x29, #-32]
	stur	w4, [x29, #-36]
	stur	w5, [x29, #-40]
	ldur	x8, [x29, #-8]
	str	x8, [sp, #32]                   ; 8-byte Folded Spill
	ldur	w8, [x29, #-36]
	subs	w8, w8, #64
	cset	w8, le
	tbnz	w8, #0, LBB42_2
	b	LBB42_1
LBB42_1:
	adrp	x0, l___func__._ZN13mnist_datasetILi64ELi1ELi28ELi28EE8get_dataER6tensorIfLi64ELi1ELi28ELi28EERS1_IiLi64ELi1ELi1ELi1EES5_ii@PAGE
	add	x0, x0, l___func__._ZN13mnist_datasetILi64ELi1ELi28ELi28EE8get_dataER6tensorIfLi64ELi1ELi28ELi28EERS1_IiLi64ELi1ELi1ELi1EES5_ii@PAGEOFF
	adrp	x1, l_.str.94@PAGE
	add	x1, x1, l_.str.94@PAGEOFF
	mov	w2, #216
	adrp	x3, l_.str.114@PAGE
	add	x3, x3, l_.str.114@PAGEOFF
	bl	___assert_rtn
LBB42_2:
	b	LBB42_3
LBB42_3:
	ldr	x9, [sp, #32]                   ; 8-byte Folded Reload
	ldr	x8, [x9, #8]
	ldr	x9, [x9]
	subs	x8, x8, x9
	ldursw	x9, [x29, #-36]
	subs	x8, x8, x9
	cset	w8, ge
	tbnz	w8, #0, LBB42_5
	b	LBB42_4
LBB42_4:
	ldr	x9, [sp, #32]                   ; 8-byte Folded Reload
	ldr	x8, [x9, #8]
	ldr	x9, [x9]
	subs	x8, x8, x9
	str	x8, [sp, #24]                   ; 8-byte Folded Spill
	b	LBB42_6
LBB42_5:
	ldursw	x8, [x29, #-36]
	str	x8, [sp, #24]                   ; 8-byte Folded Spill
	b	LBB42_6
LBB42_6:
	ldr	x8, [sp, #24]                   ; 8-byte Folded Reload
                                        ; kill: def $w8 killed $w8 killed $x8
	stur	w8, [x29, #-44]
	ldur	x0, [x29, #-16]
	ldur	w1, [x29, #-44]
	bl	__ZN6tensorIfLi64ELi1ELi28ELi28EE6set_n0Ei
	ldur	x0, [x29, #-24]
	ldur	w1, [x29, #-44]
	bl	__ZN6tensorIiLi64ELi1ELi1ELi1EE6set_n0Ei
	ldur	x0, [x29, #-32]
	ldur	w1, [x29, #-44]
	bl	__ZN6tensorIiLi64ELi1ELi1ELi1EE6set_n0Ei
	stur	xzr, [x29, #-56]
	b	LBB42_7
LBB42_7:                                ; =>This Loop Header: Depth=1
                                        ;     Child Loop BB42_9 Depth 2
                                        ;       Child Loop BB42_11 Depth 3
                                        ;         Child Loop BB42_13 Depth 4
	ldur	x8, [x29, #-56]
	ldursw	x9, [x29, #-44]
	subs	x8, x8, x9
	cset	w8, ge
	tbnz	w8, #0, LBB42_22
	b	LBB42_8
LBB42_8:                                ;   in Loop: Header=BB42_7 Depth=1
	ldr	x8, [sp, #32]                   ; 8-byte Folded Reload
	ldr	x9, [x8]
	str	x9, [sp, #64]
	ldr	x8, [x8, #16]
	ldr	x9, [sp, #64]
	mov	x10, #3928
	mul	x9, x9, x10
	add	x8, x8, x9
	str	x8, [sp, #56]
	ldr	x8, [sp, #56]
	ldr	w8, [x8]
	str	w8, [sp, #12]                   ; 4-byte Folded Spill
	ldur	x0, [x29, #-32]
	ldur	x8, [x29, #-56]
	mov	x1, x8
	mov	w4, #0
	str	w4, [sp, #16]                   ; 4-byte Folded Spill
	mov	x2, x4
	mov	x3, x4
	bl	__ZN6tensorIiLi64ELi1ELi1ELi1EEclEiiii
	ldr	w8, [sp, #12]                   ; 4-byte Folded Reload
	ldr	w4, [sp, #16]                   ; 4-byte Folded Reload
	str	w8, [x0]
	ldr	x8, [sp, #56]
	ldrsb	w8, [x8, #3924]
	str	w8, [sp, #20]                   ; 4-byte Folded Spill
	ldur	x0, [x29, #-24]
	ldur	x8, [x29, #-56]
	mov	x1, x8
	mov	x2, x4
	mov	x3, x4
	bl	__ZN6tensorIiLi64ELi1ELi1ELi1EEclEiiii
	ldr	w8, [sp, #20]                   ; 4-byte Folded Reload
	str	w8, [x0]
	str	wzr, [sp, #52]
	b	LBB42_9
LBB42_9:                                ;   Parent Loop BB42_7 Depth=1
                                        ; =>  This Loop Header: Depth=2
                                        ;       Child Loop BB42_11 Depth 3
                                        ;         Child Loop BB42_13 Depth 4
	ldr	w8, [sp, #52]
	subs	w8, w8, #1
	cset	w8, ge
	tbnz	w8, #0, LBB42_20
	b	LBB42_10
LBB42_10:                               ;   in Loop: Header=BB42_9 Depth=2
	str	wzr, [sp, #48]
	b	LBB42_11
LBB42_11:                               ;   Parent Loop BB42_7 Depth=1
                                        ;     Parent Loop BB42_9 Depth=2
                                        ; =>    This Loop Header: Depth=3
                                        ;         Child Loop BB42_13 Depth 4
	ldr	w8, [sp, #48]
	subs	w8, w8, #28
	cset	w8, ge
	tbnz	w8, #0, LBB42_18
	b	LBB42_12
LBB42_12:                               ;   in Loop: Header=BB42_11 Depth=3
	str	wzr, [sp, #44]
	b	LBB42_13
LBB42_13:                               ;   Parent Loop BB42_7 Depth=1
                                        ;     Parent Loop BB42_9 Depth=2
                                        ;       Parent Loop BB42_11 Depth=3
                                        ; =>      This Inner Loop Header: Depth=4
	ldr	w8, [sp, #44]
	subs	w8, w8, #28
	cset	w8, ge
	tbnz	w8, #0, LBB42_16
	b	LBB42_14
LBB42_14:                               ;   in Loop: Header=BB42_13 Depth=4
	ldr	x0, [sp, #56]
	ldr	w1, [sp, #52]
	ldr	w2, [sp, #48]
	ldr	w3, [sp, #44]
	bl	__ZN9data_itemILi1ELi28ELi28EEclEiii
	ldr	w8, [x0]
	str	w8, [sp, #8]                    ; 4-byte Folded Spill
	ldur	x0, [x29, #-16]
	ldur	x8, [x29, #-56]
	mov	x1, x8
	ldr	w2, [sp, #52]
	ldr	w3, [sp, #48]
	ldr	w4, [sp, #44]
	bl	__ZN6tensorIfLi64ELi1ELi28ELi28EEclEiiii
	ldr	w8, [sp, #8]                    ; 4-byte Folded Reload
	str	w8, [x0]
	b	LBB42_15
LBB42_15:                               ;   in Loop: Header=BB42_13 Depth=4
	ldr	w8, [sp, #44]
	add	w8, w8, #1
	str	w8, [sp, #44]
	b	LBB42_13
LBB42_16:                               ;   in Loop: Header=BB42_11 Depth=3
	b	LBB42_17
LBB42_17:                               ;   in Loop: Header=BB42_11 Depth=3
	ldr	w8, [sp, #48]
	add	w8, w8, #1
	str	w8, [sp, #48]
	b	LBB42_11
LBB42_18:                               ;   in Loop: Header=BB42_9 Depth=2
	b	LBB42_19
LBB42_19:                               ;   in Loop: Header=BB42_9 Depth=2
	ldr	w8, [sp, #52]
	add	w8, w8, #1
	str	w8, [sp, #52]
	b	LBB42_9
LBB42_20:                               ;   in Loop: Header=BB42_7 Depth=1
	ldr	x9, [sp, #32]                   ; 8-byte Folded Reload
	ldr	x8, [x9]
	add	x8, x8, #1
	str	x8, [x9]
	b	LBB42_21
LBB42_21:                               ;   in Loop: Header=BB42_7 Depth=1
	ldur	x8, [x29, #-56]
	add	x8, x8, #1
	stur	x8, [x29, #-56]
	b	LBB42_7
LBB42_22:
	ldur	x0, [x29, #-16]
	ldur	w1, [x29, #-40]
	bl	__Z6to_devI6tensorIfLi64ELi1ELi28ELi28EEEvPT_i
	ldur	x0, [x29, #-24]
	ldur	w1, [x29, #-40]
	bl	__Z6to_devI6tensorIiLi64ELi1ELi1ELi1EEEvPT_i
	ldur	x0, [x29, #-32]
	ldur	w1, [x29, #-40]
	bl	__Z6to_devI6tensorIiLi64ELi1ELi1ELi1EEEvPT_i
	ldur	w0, [x29, #-44]
	.cfi_def_cfa wsp, 144
	ldp	x29, x30, [sp, #128]            ; 16-byte Folded Reload
	add	sp, sp, #144
	.cfi_def_cfa_offset 0
	.cfi_restore w30
	.cfi_restore w29
	ret
	.cfi_endproc
                                        ; -- End function
	.globl	__ZN6logger7end_logEv           ; -- Begin function _ZN6logger7end_logEv
	.weak_definition	__ZN6logger7end_logEv
	.p2align	2
__ZN6logger7end_logEv:                  ; @_ZN6logger7end_logEv
	.cfi_startproc
; %bb.0:
	sub	sp, sp, #48
	.cfi_def_cfa_offset 48
	stp	x29, x30, [sp, #32]             ; 16-byte Folded Spill
	add	x29, sp, #32
	.cfi_def_cfa w29, 16
	.cfi_offset w30, -8
	.cfi_offset w29, -16
	stur	x0, [x29, #-8]
	ldur	x8, [x29, #-8]
	str	x8, [sp, #16]                   ; 8-byte Folded Spill
	ldr	x8, [x8, #120]
	subs	x8, x8, #0
	cset	w8, eq
	tbnz	w8, #0, LBB43_2
	b	LBB43_1
LBB43_1:
	ldr	x0, [sp, #16]                   ; 8-byte Folded Reload
	bl	__ZN6logger12cur_time_strEv
	mov	x8, x0
	ldr	x0, [sp, #16]                   ; 8-byte Folded Reload
	mov	x9, sp
	str	x8, [x9]
	mov	w1, #2
	adrp	x2, l_.str.115@PAGE
	add	x2, x2, l_.str.115@PAGEOFF
	bl	__ZN6logger3logEiPKcz
	ldr	x8, [sp, #16]                   ; 8-byte Folded Reload
	ldr	x0, [x8, #120]
	bl	_fclose
	ldr	x8, [sp, #16]                   ; 8-byte Folded Reload
                                        ; kill: def $x9 killed $xzr
	str	xzr, [x8, #120]
	b	LBB43_2
LBB43_2:
	mov	w0, #1
	.cfi_def_cfa wsp, 48
	ldp	x29, x30, [sp, #32]             ; 16-byte Folded Reload
	add	sp, sp, #48
	.cfi_def_cfa_offset 0
	.cfi_restore w30
	.cfi_restore w29
	ret
	.cfi_endproc
                                        ; -- End function
	.globl	__ZN6loggerC2Ev                 ; -- Begin function _ZN6loggerC2Ev
	.weak_def_can_be_hidden	__ZN6loggerC2Ev
	.p2align	2
__ZN6loggerC2Ev:                        ; @_ZN6loggerC2Ev
	.cfi_startproc
; %bb.0:
	sub	sp, sp, #32
	.cfi_def_cfa_offset 32
	stp	x29, x30, [sp, #16]             ; 16-byte Folded Spill
	add	x29, sp, #16
	.cfi_def_cfa w29, 16
	.cfi_offset w30, -8
	.cfi_offset w29, -16
	str	x0, [sp, #8]
	ldr	x0, [sp, #8]
	str	x0, [sp]                        ; 8-byte Folded Spill
	bl	__ZN11cmdline_optC1Ev
	ldr	x0, [sp]                        ; 8-byte Folded Reload
	.cfi_def_cfa wsp, 32
	ldp	x29, x30, [sp, #16]             ; 16-byte Folded Reload
	add	sp, sp, #32
	.cfi_def_cfa_offset 0
	.cfi_restore w30
	.cfi_restore w29
	ret
	.cfi_endproc
                                        ; -- End function
	.p2align	2                               ; -- Begin function _ZL7get_tscv
__ZL7get_tscv:                          ; @_ZL7get_tscv
	.cfi_startproc
; %bb.0:
	sub	sp, sp, #64
	.cfi_def_cfa_offset 64
	stp	x29, x30, [sp, #48]             ; 16-byte Folded Spill
	add	x29, sp, #48
	.cfi_def_cfa w29, 16
	.cfi_offset w30, -8
	.cfi_offset w29, -16
	adrp	x8, ___stack_chk_guard@GOTPAGE
	ldr	x8, [x8, ___stack_chk_guard@GOTPAGEOFF]
	ldr	x8, [x8]
	stur	x8, [x29, #-8]
	mov	w0, #0
	add	x1, sp, #24
	bl	_clock_gettime
	adds	w8, w0, #1
	cset	w8, ne
	tbnz	w8, #0, LBB45_2
	b	LBB45_1
LBB45_1:
	adrp	x0, l_.str.41@PAGE
	add	x0, x0, l_.str.41@PAGEOFF
	bl	_perror
	bl	__ZL4bailv
	b	LBB45_2
LBB45_2:
	ldr	x8, [sp, #24]
	mov	x9, #51712
	movk	x9, #15258, lsl #16
	mul	x8, x8, x9
	ldr	x9, [sp, #32]
	add	x8, x8, x9
	str	x8, [sp, #16]
	ldr	x8, [sp, #16]
	str	x8, [sp, #8]                    ; 8-byte Folded Spill
	ldur	x9, [x29, #-8]
	adrp	x8, ___stack_chk_guard@GOTPAGE
	ldr	x8, [x8, ___stack_chk_guard@GOTPAGEOFF]
	ldr	x8, [x8]
	subs	x8, x8, x9
	cset	w8, eq
	tbnz	w8, #0, LBB45_4
	b	LBB45_3
LBB45_3:
	bl	___stack_chk_fail
LBB45_4:
	ldr	x0, [sp, #8]                    ; 8-byte Folded Reload
	.cfi_def_cfa wsp, 64
	ldp	x29, x30, [sp, #48]             ; 16-byte Folded Reload
	add	sp, sp, #64
	.cfi_def_cfa_offset 0
	.cfi_restore w30
	.cfi_restore w29
	ret
	.cfi_endproc
                                        ; -- End function
	.globl	__ZN6logger3logEiPKcz           ; -- Begin function _ZN6logger3logEiPKcz
	.weak_definition	__ZN6logger3logEiPKcz
	.p2align	2
__ZN6logger3logEiPKcz:                  ; @_ZN6logger3logEiPKcz
	.cfi_startproc
; %bb.0:
	sub	sp, sp, #96
	.cfi_def_cfa_offset 96
	stp	x29, x30, [sp, #80]             ; 16-byte Folded Spill
	add	x29, sp, #80
	.cfi_def_cfa w29, 16
	.cfi_offset w30, -8
	.cfi_offset w29, -16
	adrp	x8, ___stdoutp@GOTPAGE
	ldr	x8, [x8, ___stdoutp@GOTPAGEOFF]
	str	x8, [sp, #8]                    ; 8-byte Folded Spill
	stur	x0, [x29, #-8]
	stur	w1, [x29, #-12]
	stur	x2, [x29, #-24]
	ldur	x8, [x29, #-8]
	str	x8, [sp, #16]                   ; 8-byte Folded Spill
	bl	__ZL7get_tscv
	ldr	x8, [sp, #16]                   ; 8-byte Folded Reload
	stur	x0, [x29, #-32]
	ldur	x9, [x29, #-32]
	ldr	x10, [x8, #128]
	subs	x9, x9, x10
	str	x9, [sp, #40]
	ldr	x8, [x8, #120]
	subs	x8, x8, #0
	cset	w8, eq
	tbnz	w8, #0, LBB46_2
	b	LBB46_1
LBB46_1:
	ldr	x8, [sp, #16]                   ; 8-byte Folded Reload
	ldr	x0, [x8, #120]
	ldr	x8, [sp, #40]
	mov	x9, sp
	str	x8, [x9]
	adrp	x1, l_.str.42@PAGE
	add	x1, x1, l_.str.42@PAGEOFF
	bl	_fprintf
	ldr	x8, [sp, #16]                   ; 8-byte Folded Reload
	add	x10, sp, #32
	add	x9, x29, #16
	str	x9, [x10]
	ldr	x0, [x8, #120]
	ldur	x1, [x29, #-24]
	ldr	x2, [sp, #32]
	bl	_vfprintf
	ldr	x8, [sp, #16]                   ; 8-byte Folded Reload
	ldr	x0, [x8, #120]
	adrp	x1, l_.str.43@PAGE
	add	x1, x1, l_.str.43@PAGEOFF
	bl	_fprintf
	b	LBB46_2
LBB46_2:
	ldr	x8, [sp, #16]                   ; 8-byte Folded Reload
	ldr	w8, [x8]
	ldur	w9, [x29, #-12]
	subs	w8, w8, w9
	cset	w8, lt
	tbnz	w8, #0, LBB46_4
	b	LBB46_3
LBB46_3:
	ldr	x8, [sp, #8]                    ; 8-byte Folded Reload
	ldr	x0, [x8]
	ldr	x8, [sp, #40]
	mov	x9, sp
	str	x8, [x9]
	adrp	x1, l_.str.42@PAGE
	add	x1, x1, l_.str.42@PAGEOFF
	bl	_fprintf
	ldr	x8, [sp, #8]                    ; 8-byte Folded Reload
	add	x10, sp, #24
	add	x9, x29, #16
	str	x9, [x10]
	ldr	x0, [x8]
	ldur	x1, [x29, #-24]
	ldr	x2, [sp, #24]
	bl	_vfprintf
	ldr	x8, [sp, #8]                    ; 8-byte Folded Reload
	ldr	x0, [x8]
	adrp	x1, l_.str.43@PAGE
	add	x1, x1, l_.str.43@PAGEOFF
	bl	_fprintf
	ldr	x8, [sp, #8]                    ; 8-byte Folded Reload
	ldr	x0, [x8]
	bl	_fflush
	b	LBB46_4
LBB46_4:
	mov	w0, #1
	.cfi_def_cfa wsp, 96
	ldp	x29, x30, [sp, #80]             ; 16-byte Folded Reload
	add	sp, sp, #96
	.cfi_def_cfa_offset 0
	.cfi_restore w30
	.cfi_restore w29
	ret
	.cfi_endproc
                                        ; -- End function
	.globl	__ZN6logger12cur_time_strEv     ; -- Begin function _ZN6logger12cur_time_strEv
	.weak_definition	__ZN6logger12cur_time_strEv
	.p2align	2
__ZN6logger12cur_time_strEv:            ; @_ZN6logger12cur_time_strEv
	.cfi_startproc
; %bb.0:
	sub	sp, sp, #48
	.cfi_def_cfa_offset 48
	stp	x29, x30, [sp, #32]             ; 16-byte Folded Spill
	add	x29, sp, #32
	.cfi_def_cfa w29, 16
	.cfi_offset w30, -8
	.cfi_offset w29, -16
	stur	x0, [x29, #-8]
	mov	x0, #0
	bl	_time
	mov	x8, x0
	add	x0, sp, #16
	str	x8, [sp, #16]
	bl	_ctime
	str	x0, [sp, #8]
	ldr	x8, [sp, #8]
	subs	x8, x8, #0
	cset	w8, ne
	tbnz	w8, #0, LBB47_2
	b	LBB47_1
LBB47_1:
	adrp	x0, l_.str.44@PAGE
	add	x0, x0, l_.str.44@PAGEOFF
	bl	_perror
	mov	w0, #1
	bl	_exit
LBB47_2:
	ldr	x0, [sp, #8]
	bl	_strlen
	mov	x8, x0
	str	w8, [sp, #4]
	ldr	x8, [sp, #8]
	ldr	w9, [sp, #4]
	subs	w9, w9, #1
	add	x8, x8, w9, sxtw
	strb	wzr, [x8]
	ldr	x0, [sp, #8]
	.cfi_def_cfa wsp, 48
	ldp	x29, x30, [sp, #32]             ; 16-byte Folded Reload
	add	sp, sp, #48
	.cfi_def_cfa_offset 0
	.cfi_restore w30
	.cfi_restore w29
	ret
	.cfi_endproc
                                        ; -- End function
	.globl	__ZN6logger7log_optEv           ; -- Begin function _ZN6logger7log_optEv
	.weak_definition	__ZN6logger7log_optEv
	.p2align	2
__ZN6logger7log_optEv:                  ; @_ZN6logger7log_optEv
	.cfi_startproc
; %bb.0:
	sub	sp, sp, #48
	.cfi_def_cfa_offset 48
	stp	x29, x30, [sp, #32]             ; 16-byte Folded Spill
	add	x29, sp, #32
	.cfi_def_cfa w29, 16
	.cfi_offset w30, -8
	.cfi_offset w29, -16
	stur	x0, [x29, #-8]
	ldur	x0, [x29, #-8]
	str	x0, [sp, #16]                   ; 8-byte Folded Spill
	ldr	w9, [x0]
                                        ; implicit-def: $x8
	mov	x8, x9
	mov	x9, sp
	str	x8, [x9]
	mov	w1, #2
	str	w1, [sp, #12]                   ; 4-byte Folded Spill
	adrp	x2, l_.str.45@PAGE
	add	x2, x2, l_.str.45@PAGEOFF
	bl	__ZN6logger3logEiPKcz
	ldr	w1, [sp, #12]                   ; 4-byte Folded Reload
	ldr	x0, [sp, #16]                   ; 8-byte Folded Reload
	ldr	x8, [x0, #8]
	mov	x9, sp
	str	x8, [x9]
	adrp	x2, l_.str.46@PAGE
	add	x2, x2, l_.str.46@PAGEOFF
	bl	__ZN6logger3logEiPKcz
	ldr	w1, [sp, #12]                   ; 4-byte Folded Reload
	ldr	x0, [sp, #16]                   ; 8-byte Folded Reload
	ldr	s0, [x0, #16]
	fcvt	d0, s0
	mov	x8, sp
	str	d0, [x8]
	adrp	x2, l_.str.47@PAGE
	add	x2, x2, l_.str.47@PAGEOFF
	bl	__ZN6logger3logEiPKcz
	ldr	w1, [sp, #12]                   ; 4-byte Folded Reload
	ldr	x0, [sp, #16]                   ; 8-byte Folded Reload
	ldr	x8, [x0, #24]
	mov	x9, sp
	str	x8, [x9]
	adrp	x2, l_.str.48@PAGE
	add	x2, x2, l_.str.48@PAGEOFF
	bl	__ZN6logger3logEiPKcz
	ldr	w1, [sp, #12]                   ; 4-byte Folded Reload
	ldr	x0, [sp, #16]                   ; 8-byte Folded Reload
	ldr	w9, [x0, #32]
                                        ; implicit-def: $x8
	mov	x8, x9
	mov	x9, sp
	str	x8, [x9]
	adrp	x2, l_.str.49@PAGE
	add	x2, x2, l_.str.49@PAGEOFF
	bl	__ZN6logger3logEiPKcz
	ldr	w1, [sp, #12]                   ; 4-byte Folded Reload
	ldr	x0, [sp, #16]                   ; 8-byte Folded Reload
	ldr	w9, [x0, #36]
                                        ; implicit-def: $x8
	mov	x8, x9
	mov	x9, sp
	str	x8, [x9]
	adrp	x2, l_.str.50@PAGE
	add	x2, x2, l_.str.50@PAGEOFF
	bl	__ZN6logger3logEiPKcz
	ldr	w1, [sp, #12]                   ; 4-byte Folded Reload
	ldr	x0, [sp, #16]                   ; 8-byte Folded Reload
	ldr	w9, [x0, #40]
                                        ; implicit-def: $x8
	mov	x8, x9
	mov	x9, sp
	str	x8, [x9]
	adrp	x2, l_.str.51@PAGE
	add	x2, x2, l_.str.51@PAGEOFF
	bl	__ZN6logger3logEiPKcz
	ldr	w1, [sp, #12]                   ; 4-byte Folded Reload
	ldr	x0, [sp, #16]                   ; 8-byte Folded Reload
	ldr	x8, [x0, #56]
	mov	x9, sp
	str	x8, [x9]
	adrp	x2, l_.str.52@PAGE
	add	x2, x2, l_.str.52@PAGEOFF
	bl	__ZN6logger3logEiPKcz
	ldr	w1, [sp, #12]                   ; 4-byte Folded Reload
	ldr	x0, [sp, #16]                   ; 8-byte Folded Reload
	ldr	x8, [x0, #64]
	mov	x9, sp
	str	x8, [x9]
	adrp	x2, l_.str.53@PAGE
	add	x2, x2, l_.str.53@PAGEOFF
	bl	__ZN6logger3logEiPKcz
	ldr	w1, [sp, #12]                   ; 4-byte Folded Reload
	ldr	x0, [sp, #16]                   ; 8-byte Folded Reload
	ldr	x8, [x0, #72]
	mov	x9, sp
	str	x8, [x9]
	adrp	x2, l_.str.54@PAGE
	add	x2, x2, l_.str.54@PAGEOFF
	bl	__ZN6logger3logEiPKcz
	ldr	w1, [sp, #12]                   ; 4-byte Folded Reload
	ldr	x0, [sp, #16]                   ; 8-byte Folded Reload
	ldr	w9, [x0, #80]
                                        ; implicit-def: $x8
	mov	x8, x9
	mov	x9, sp
	str	x8, [x9]
	adrp	x2, l_.str.55@PAGE
	add	x2, x2, l_.str.55@PAGEOFF
	bl	__ZN6logger3logEiPKcz
	ldr	w1, [sp, #12]                   ; 4-byte Folded Reload
	ldr	x0, [sp, #16]                   ; 8-byte Folded Reload
	ldr	w9, [x0, #96]
                                        ; implicit-def: $x8
	mov	x8, x9
	mov	x9, sp
	str	x8, [x9]
	adrp	x2, l_.str.56@PAGE
	add	x2, x2, l_.str.56@PAGEOFF
	bl	__ZN6logger3logEiPKcz
	ldr	w1, [sp, #12]                   ; 4-byte Folded Reload
	ldr	x0, [sp, #16]                   ; 8-byte Folded Reload
	ldr	x8, [x0, #88]
	mov	x9, sp
	str	x8, [x9]
	adrp	x2, l_.str.57@PAGE
	add	x2, x2, l_.str.57@PAGEOFF
	bl	__ZN6logger3logEiPKcz
	ldr	w1, [sp, #12]                   ; 4-byte Folded Reload
	ldr	x0, [sp, #16]                   ; 8-byte Folded Reload
	ldr	w9, [x0, #100]
                                        ; implicit-def: $x8
	mov	x8, x9
	mov	x9, sp
	str	x8, [x9]
	adrp	x2, l_.str.58@PAGE
	add	x2, x2, l_.str.58@PAGEOFF
	bl	__ZN6logger3logEiPKcz
	ldr	w1, [sp, #12]                   ; 4-byte Folded Reload
	ldr	x0, [sp, #16]                   ; 8-byte Folded Reload
	ldr	x8, [x0, #104]
	mov	x9, sp
	str	x8, [x9]
	adrp	x2, l_.str.59@PAGE
	add	x2, x2, l_.str.59@PAGEOFF
	bl	__ZN6logger3logEiPKcz
	mov	w0, #1
	.cfi_def_cfa wsp, 48
	ldp	x29, x30, [sp, #32]             ; 16-byte Folded Reload
	add	sp, sp, #48
	.cfi_def_cfa_offset 0
	.cfi_restore w30
	.cfi_restore w29
	ret
	.cfi_endproc
                                        ; -- End function
	.globl	__ZN6logger8log_hostEv          ; -- Begin function _ZN6logger8log_hostEv
	.weak_definition	__ZN6logger8log_hostEv
	.p2align	2
__ZN6logger8log_hostEv:                 ; @_ZN6logger8log_hostEv
	.cfi_startproc
; %bb.0:
	sub	sp, sp, #128
	.cfi_def_cfa_offset 128
	stp	x29, x30, [sp, #112]            ; 16-byte Folded Spill
	add	x29, sp, #112
	.cfi_def_cfa w29, 16
	.cfi_offset w30, -8
	.cfi_offset w29, -16
	adrp	x8, ___stack_chk_guard@GOTPAGE
	ldr	x8, [x8, ___stack_chk_guard@GOTPAGEOFF]
	ldr	x8, [x8]
	stur	x8, [x29, #-8]
	str	x0, [sp, #24]
	ldr	x8, [sp, #24]
	str	x8, [sp, #16]                   ; 8-byte Folded Spill
	add	x0, sp, #39
	str	x0, [sp, #8]                    ; 8-byte Folded Spill
	strb	wzr, [sp, #39]
	mov	x1, #65
	bl	_gethostname
	ldr	x8, [sp, #8]                    ; 8-byte Folded Reload
	ldr	x0, [sp, #16]                   ; 8-byte Folded Reload
	mov	x9, sp
	str	x8, [x9]
	mov	w1, #2
	adrp	x2, l_.str.60@PAGE
	add	x2, x2, l_.str.60@PAGEOFF
	bl	__ZN6logger3logEiPKcz
	ldur	x9, [x29, #-8]
	adrp	x8, ___stack_chk_guard@GOTPAGE
	ldr	x8, [x8, ___stack_chk_guard@GOTPAGEOFF]
	ldr	x8, [x8]
	subs	x8, x8, x9
	cset	w8, eq
	tbnz	w8, #0, LBB49_2
	b	LBB49_1
LBB49_1:
	bl	___stack_chk_fail
LBB49_2:
	mov	w0, #1
	.cfi_def_cfa wsp, 128
	ldp	x29, x30, [sp, #112]            ; 16-byte Folded Reload
	add	sp, sp, #128
	.cfi_def_cfa_offset 0
	.cfi_restore w30
	.cfi_restore w29
	ret
	.cfi_endproc
                                        ; -- End function
	.globl	__ZN6logger8log_envsEv          ; -- Begin function _ZN6logger8log_envsEv
	.weak_definition	__ZN6logger8log_envsEv
	.p2align	2
__ZN6logger8log_envsEv:                 ; @_ZN6logger8log_envsEv
	.cfi_startproc
; %bb.0:
	sub	sp, sp, #32
	.cfi_def_cfa_offset 32
	stp	x29, x30, [sp, #16]             ; 16-byte Folded Spill
	add	x29, sp, #16
	.cfi_def_cfa w29, 16
	.cfi_offset w30, -8
	.cfi_offset w29, -16
	str	x0, [sp, #8]
	ldr	x0, [sp, #8]
	str	x0, [sp]                        ; 8-byte Folded Spill
	adrp	x1, l_.str.61@PAGE
	add	x1, x1, l_.str.61@PAGEOFF
	bl	__ZN6logger7log_envEPKc
	ldr	x0, [sp]                        ; 8-byte Folded Reload
	adrp	x1, l_.str.62@PAGE
	add	x1, x1, l_.str.62@PAGEOFF
	bl	__ZN6logger7log_envEPKc
	ldr	x0, [sp]                        ; 8-byte Folded Reload
	adrp	x1, l_.str.63@PAGE
	add	x1, x1, l_.str.63@PAGEOFF
	bl	__ZN6logger7log_envEPKc
	ldr	x0, [sp]                        ; 8-byte Folded Reload
	adrp	x1, l_.str.64@PAGE
	add	x1, x1, l_.str.64@PAGEOFF
	bl	__ZN6logger7log_envEPKc
	ldr	x0, [sp]                        ; 8-byte Folded Reload
	adrp	x1, l_.str.65@PAGE
	add	x1, x1, l_.str.65@PAGEOFF
	bl	__ZN6logger7log_envEPKc
	ldr	x0, [sp]                        ; 8-byte Folded Reload
	adrp	x1, l_.str.66@PAGE
	add	x1, x1, l_.str.66@PAGEOFF
	bl	__ZN6logger7log_envEPKc
	ldr	x0, [sp]                        ; 8-byte Folded Reload
	adrp	x1, l_.str.67@PAGE
	add	x1, x1, l_.str.67@PAGEOFF
	bl	__ZN6logger7log_envEPKc
	ldr	x0, [sp]                        ; 8-byte Folded Reload
	adrp	x1, l_.str.68@PAGE
	add	x1, x1, l_.str.68@PAGEOFF
	bl	__ZN6logger7log_envEPKc
	ldr	x0, [sp]                        ; 8-byte Folded Reload
	adrp	x1, l_.str.69@PAGE
	add	x1, x1, l_.str.69@PAGEOFF
	bl	__ZN6logger7log_envEPKc
	ldr	x0, [sp]                        ; 8-byte Folded Reload
	adrp	x1, l_.str.70@PAGE
	add	x1, x1, l_.str.70@PAGEOFF
	bl	__ZN6logger7log_envEPKc
	ldr	x0, [sp]                        ; 8-byte Folded Reload
	adrp	x1, l_.str.71@PAGE
	add	x1, x1, l_.str.71@PAGEOFF
	bl	__ZN6logger7log_envEPKc
	ldr	x0, [sp]                        ; 8-byte Folded Reload
	adrp	x1, l_.str.72@PAGE
	add	x1, x1, l_.str.72@PAGEOFF
	bl	__ZN6logger7log_envEPKc
	ldr	x0, [sp]                        ; 8-byte Folded Reload
	adrp	x1, l_.str.73@PAGE
	add	x1, x1, l_.str.73@PAGEOFF
	bl	__ZN6logger7log_envEPKc
	ldr	x0, [sp]                        ; 8-byte Folded Reload
	adrp	x1, l_.str.74@PAGE
	add	x1, x1, l_.str.74@PAGEOFF
	bl	__ZN6logger7log_envEPKc
	ldr	x0, [sp]                        ; 8-byte Folded Reload
	adrp	x1, l_.str.75@PAGE
	add	x1, x1, l_.str.75@PAGEOFF
	bl	__ZN6logger7log_envEPKc
	ldr	x0, [sp]                        ; 8-byte Folded Reload
	adrp	x1, l_.str.76@PAGE
	add	x1, x1, l_.str.76@PAGEOFF
	bl	__ZN6logger7log_envEPKc
	ldr	x0, [sp]                        ; 8-byte Folded Reload
	adrp	x1, l_.str.77@PAGE
	add	x1, x1, l_.str.77@PAGEOFF
	bl	__ZN6logger7log_envEPKc
	ldr	x0, [sp]                        ; 8-byte Folded Reload
	adrp	x1, l_.str.78@PAGE
	add	x1, x1, l_.str.78@PAGEOFF
	bl	__ZN6logger7log_envEPKc
	ldr	x0, [sp]                        ; 8-byte Folded Reload
	adrp	x1, l_.str.79@PAGE
	add	x1, x1, l_.str.79@PAGEOFF
	bl	__ZN6logger7log_envEPKc
	ldr	x0, [sp]                        ; 8-byte Folded Reload
	adrp	x1, l_.str.80@PAGE
	add	x1, x1, l_.str.80@PAGEOFF
	bl	__ZN6logger7log_envEPKc
	ldr	x0, [sp]                        ; 8-byte Folded Reload
	adrp	x1, l_.str.81@PAGE
	add	x1, x1, l_.str.81@PAGEOFF
	bl	__ZN6logger7log_envEPKc
	ldr	x0, [sp]                        ; 8-byte Folded Reload
	adrp	x1, l_.str.82@PAGE
	add	x1, x1, l_.str.82@PAGEOFF
	bl	__ZN6logger7log_envEPKc
	ldr	x0, [sp]                        ; 8-byte Folded Reload
	adrp	x1, l_.str.83@PAGE
	add	x1, x1, l_.str.83@PAGEOFF
	bl	__ZN6logger7log_envEPKc
	ldr	x0, [sp]                        ; 8-byte Folded Reload
	adrp	x1, l_.str.84@PAGE
	add	x1, x1, l_.str.84@PAGEOFF
	bl	__ZN6logger7log_envEPKc
	ldr	x0, [sp]                        ; 8-byte Folded Reload
	adrp	x1, l_.str.85@PAGE
	add	x1, x1, l_.str.85@PAGEOFF
	bl	__ZN6logger7log_envEPKc
	ldr	x0, [sp]                        ; 8-byte Folded Reload
	adrp	x1, l_.str.86@PAGE
	add	x1, x1, l_.str.86@PAGEOFF
	bl	__ZN6logger7log_envEPKc
	ldr	x0, [sp]                        ; 8-byte Folded Reload
	adrp	x1, l_.str.87@PAGE
	add	x1, x1, l_.str.87@PAGEOFF
	bl	__ZN6logger7log_envEPKc
	mov	w0, #1
	.cfi_def_cfa wsp, 32
	ldp	x29, x30, [sp, #16]             ; 16-byte Folded Reload
	add	sp, sp, #32
	.cfi_def_cfa_offset 0
	.cfi_restore w30
	.cfi_restore w29
	ret
	.cfi_endproc
                                        ; -- End function
	.globl	__ZN6logger7log_envEPKc         ; -- Begin function _ZN6logger7log_envEPKc
	.weak_definition	__ZN6logger7log_envEPKc
	.p2align	2
__ZN6logger7log_envEPKc:                ; @_ZN6logger7log_envEPKc
	.cfi_startproc
; %bb.0:
	sub	sp, sp, #64
	.cfi_def_cfa_offset 64
	stp	x29, x30, [sp, #48]             ; 16-byte Folded Spill
	add	x29, sp, #48
	.cfi_def_cfa w29, 16
	.cfi_offset w30, -8
	.cfi_offset w29, -16
	stur	x0, [x29, #-8]
	stur	x1, [x29, #-16]
	ldur	x8, [x29, #-8]
	str	x8, [sp, #16]                   ; 8-byte Folded Spill
	ldur	x0, [x29, #-16]
	bl	_getenv
	str	x0, [sp, #24]
	ldr	x8, [sp, #24]
	subs	x8, x8, #0
	cset	w8, eq
	tbnz	w8, #0, LBB51_2
	b	LBB51_1
LBB51_1:
	ldr	x0, [sp, #16]                   ; 8-byte Folded Reload
	ldur	x10, [x29, #-16]
	ldr	x8, [sp, #24]
	mov	x9, sp
	str	x10, [x9]
	str	x8, [x9, #8]
	mov	w1, #2
	adrp	x2, l_.str.88@PAGE
	add	x2, x2, l_.str.88@PAGEOFF
	bl	__ZN6logger3logEiPKcz
	b	LBB51_3
LBB51_2:
	ldr	x0, [sp, #16]                   ; 8-byte Folded Reload
	ldur	x8, [x29, #-16]
	mov	x9, sp
	str	x8, [x9]
	mov	w1, #2
	adrp	x2, l_.str.89@PAGE
	add	x2, x2, l_.str.89@PAGEOFF
	bl	__ZN6logger3logEiPKcz
	b	LBB51_3
LBB51_3:
	mov	w0, #1
	.cfi_def_cfa wsp, 64
	ldp	x29, x30, [sp, #48]             ; 16-byte Folded Reload
	add	sp, sp, #64
	.cfi_def_cfa_offset 0
	.cfi_restore w30
	.cfi_restore w29
	ret
	.cfi_endproc
                                        ; -- End function
	.p2align	2                               ; -- Begin function _ZL26read_pascal_vincent_formatPKc
__ZL26read_pascal_vincent_formatPKc:    ; @_ZL26read_pascal_vincent_formatPKc
	.cfi_startproc
; %bb.0:
	sub	sp, sp, #128
	.cfi_def_cfa_offset 128
	stp	x29, x30, [sp, #112]            ; 16-byte Folded Spill
	add	x29, sp, #112
	.cfi_def_cfa w29, 16
	.cfi_offset w30, -8
	.cfi_offset w29, -16
	str	x8, [sp, #16]                   ; 8-byte Folded Spill
	stur	x0, [x29, #-8]
	ldur	x0, [x29, #-8]
	adrp	x1, l_.str.105@PAGE
	add	x1, x1, l_.str.105@PAGEOFF
	bl	_fopen
	stur	x0, [x29, #-16]
	ldur	x8, [x29, #-16]
	subs	x8, x8, #0
	cset	w8, ne
	tbnz	w8, #0, LBB52_2
	b	LBB52_1
LBB52_1:
	ldur	x8, [x29, #-8]
	mov	x9, sp
	str	x8, [x9]
	mov	w0, #1
	adrp	x1, l_.str.106@PAGE
	add	x1, x1, l_.str.106@PAGEOFF
	bl	_err
LBB52_2:
	ldur	x0, [x29, #-16]
	mov	x1, #0
	mov	w2, #2
	bl	_fseek
	subs	w8, w0, #0
	cset	w8, eq
	tbnz	w8, #0, LBB52_4
	b	LBB52_3
LBB52_3:
	mov	w0, #1
	adrp	x1, l_.str.107@PAGE
	add	x1, x1, l_.str.107@PAGEOFF
	bl	_err
LBB52_4:
	ldur	x0, [x29, #-16]
	bl	_ftell
	stur	x0, [x29, #-24]
	ldur	x8, [x29, #-24]
	adds	x8, x8, #1
	cset	w8, ne
	tbnz	w8, #0, LBB52_6
	b	LBB52_5
LBB52_5:
	mov	w0, #1
	adrp	x1, l_.str.108@PAGE
	add	x1, x1, l_.str.108@PAGEOFF
	bl	_err
LBB52_6:
	ldur	x0, [x29, #-16]
	bl	_rewind
	ldur	x0, [x29, #-16]
	bl	__ZL10read_int32P7__sFILE
	stur	w0, [x29, #-28]
	ldur	w8, [x29, #-28]
	mov	w9, #256
	sdiv	w10, w8, w9
	mul	w10, w10, w9
	subs	w8, w8, w10
	stur	w8, [x29, #-32]
	ldur	w8, [x29, #-28]
	sdiv	w8, w8, w9
	stur	w8, [x29, #-36]
	ldur	w8, [x29, #-32]
	subs	w8, w8, #1
	cset	w8, eq
	mov	w9, #1
	str	w9, [sp, #12]                   ; 4-byte Folded Spill
	tbnz	w8, #0, LBB52_9
	b	LBB52_7
LBB52_7:
	ldur	w8, [x29, #-32]
	subs	w8, w8, #3
	cset	w8, eq
	mov	w9, #1
	str	w9, [sp, #12]                   ; 4-byte Folded Spill
	tbnz	w8, #0, LBB52_9
	b	LBB52_8
LBB52_8:
	ldur	w8, [x29, #-32]
	subs	w8, w8, #4
	cset	w8, eq
	str	w8, [sp, #12]                   ; 4-byte Folded Spill
	b	LBB52_9
LBB52_9:
	ldr	w8, [sp, #12]                   ; 4-byte Folded Reload
	tbnz	w8, #0, LBB52_11
	b	LBB52_10
LBB52_10:
	adrp	x0, l___func__._ZL26read_pascal_vincent_formatPKc@PAGE
	add	x0, x0, l___func__._ZL26read_pascal_vincent_formatPKc@PAGEOFF
	adrp	x1, l_.str.94@PAGE
	add	x1, x1, l_.str.94@PAGEOFF
	mov	w2, #71
	adrp	x3, l_.str.109@PAGE
	add	x3, x3, l_.str.109@PAGEOFF
	bl	___assert_rtn
LBB52_11:
	b	LBB52_12
LBB52_12:
	ldur	w8, [x29, #-36]
	subs	w8, w8, #8
	cset	w8, eq
	tbnz	w8, #0, LBB52_14
	b	LBB52_13
LBB52_13:
	adrp	x0, l___func__._ZL26read_pascal_vincent_formatPKc@PAGE
	add	x0, x0, l___func__._ZL26read_pascal_vincent_formatPKc@PAGEOFF
	adrp	x1, l_.str.94@PAGE
	add	x1, x1, l_.str.94@PAGEOFF
	mov	w2, #72
	adrp	x3, l_.str.110@PAGE
	add	x3, x3, l_.str.110@PAGEOFF
	bl	___assert_rtn
LBB52_14:
	b	LBB52_15
LBB52_15:
	ldursw	x8, [x29, #-32]
	mov	x10, #4
	umulh	x9, x8, x10
	mul	x8, x8, x10
	subs	x9, x9, #0
	cset	w9, ne
	and	w9, w9, #0x1
	ands	w9, w9, #0x1
	csinv	x0, x8, xzr, eq
	bl	__Znam
	stur	x0, [x29, #-48]
	mov	x8, #1
	str	x8, [sp, #56]
	str	wzr, [sp, #52]
	b	LBB52_16
LBB52_16:                               ; =>This Inner Loop Header: Depth=1
	ldr	w8, [sp, #52]
	ldur	w9, [x29, #-32]
	subs	w8, w8, w9
	cset	w8, ge
	tbnz	w8, #0, LBB52_19
	b	LBB52_17
LBB52_17:                               ;   in Loop: Header=BB52_16 Depth=1
	ldur	x0, [x29, #-16]
	bl	__ZL10read_int32P7__sFILE
	ldur	x8, [x29, #-48]
	ldrsw	x9, [sp, #52]
	str	w0, [x8, x9, lsl #2]
	ldur	x8, [x29, #-48]
	ldrsw	x9, [sp, #52]
	ldrsw	x9, [x8, x9, lsl #2]
	ldr	x8, [sp, #56]
	mul	x8, x8, x9
	str	x8, [sp, #56]
	b	LBB52_18
LBB52_18:                               ;   in Loop: Header=BB52_16 Depth=1
	ldr	w8, [sp, #52]
	add	w8, w8, #1
	str	w8, [sp, #52]
	b	LBB52_16
LBB52_19:
	ldur	x0, [x29, #-16]
	bl	_ftell
	str	x0, [sp, #40]
	ldr	x8, [sp, #40]
	adds	x8, x8, #1
	cset	w8, ne
	tbnz	w8, #0, LBB52_21
	b	LBB52_20
LBB52_20:
	mov	w0, #1
	adrp	x1, l_.str.108@PAGE
	add	x1, x1, l_.str.108@PAGEOFF
	bl	_err
LBB52_21:
	ldr	x8, [sp, #40]
	ldr	x9, [sp, #56]
	add	x8, x8, x9
	ldur	x9, [x29, #-24]
	subs	x8, x8, x9
	cset	w8, eq
	tbnz	w8, #0, LBB52_23
	b	LBB52_22
LBB52_22:
	adrp	x0, l___func__._ZL26read_pascal_vincent_formatPKc@PAGE
	add	x0, x0, l___func__._ZL26read_pascal_vincent_formatPKc@PAGEOFF
	adrp	x1, l_.str.94@PAGE
	add	x1, x1, l_.str.94@PAGEOFF
	mov	w2, #83
	adrp	x3, l_.str.111@PAGE
	add	x3, x3, l_.str.111@PAGEOFF
	bl	___assert_rtn
LBB52_23:
	b	LBB52_24
LBB52_24:
	ldr	x0, [sp, #56]
	bl	_malloc
	str	x0, [sp, #32]
	ldr	x8, [sp, #32]
	subs	x8, x8, #0
	cset	w8, ne
	tbnz	w8, #0, LBB52_26
	b	LBB52_25
LBB52_25:
	mov	w0, #1
	adrp	x1, l_.str.112@PAGE
	add	x1, x1, l_.str.112@PAGEOFF
	bl	_err
LBB52_26:
	ldr	x0, [sp, #32]
	ldr	x1, [sp, #56]
	ldur	x3, [x29, #-16]
	mov	x2, #1
	bl	_fread
	str	x0, [sp, #24]
	ldr	x8, [sp, #24]
	subs	x8, x8, #1
	cset	w8, eq
	tbnz	w8, #0, LBB52_28
	b	LBB52_27
LBB52_27:
	mov	w0, #1
	adrp	x1, l_.str.113@PAGE
	add	x1, x1, l_.str.113@PAGEOFF
	bl	_err
LBB52_28:
	ldur	x0, [x29, #-16]
	bl	_fclose
	ldr	x0, [sp, #16]                   ; 8-byte Folded Reload
	ldur	w1, [x29, #-32]
	ldur	w2, [x29, #-36]
	ldur	x3, [x29, #-48]
	ldr	x4, [sp, #56]
	ldr	x5, [sp, #32]
	bl	__ZN14pascal_vincentC1EiiPilPv
	.cfi_def_cfa wsp, 128
	ldp	x29, x30, [sp, #112]            ; 16-byte Folded Reload
	add	sp, sp, #128
	.cfi_def_cfa_offset 0
	.cfi_restore w30
	.cfi_restore w29
	ret
	.cfi_endproc
                                        ; -- End function
	.globl	__ZN9data_itemILi1ELi28ELi28EEclEiii ; -- Begin function _ZN9data_itemILi1ELi28ELi28EEclEiii
	.weak_definition	__ZN9data_itemILi1ELi28ELi28EEclEiii
	.p2align	2
__ZN9data_itemILi1ELi28ELi28EEclEiii:   ; @_ZN9data_itemILi1ELi28ELi28EEclEiii
	.cfi_startproc
; %bb.0:
	sub	sp, sp, #32
	.cfi_def_cfa_offset 32
	str	x0, [sp, #24]
	str	w1, [sp, #20]
	str	w2, [sp, #16]
	str	w3, [sp, #12]
	ldr	x8, [sp, #24]
	add	x8, x8, #788
	ldrsw	x9, [sp, #20]
	mov	x10, #3136
	mul	x9, x9, x10
	add	x8, x8, x9
	ldrsw	x9, [sp, #16]
	mov	x10, #112
	mul	x9, x9, x10
	add	x8, x8, x9
	ldrsw	x9, [sp, #12]
	add	x0, x8, x9, lsl #2
	add	sp, sp, #32
	.cfi_def_cfa_offset 0
	ret
	.cfi_endproc
                                        ; -- End function
	.p2align	2                               ; -- Begin function _ZL10read_int32P7__sFILE
__ZL10read_int32P7__sFILE:              ; @_ZL10read_int32P7__sFILE
	.cfi_startproc
; %bb.0:
	sub	sp, sp, #48
	.cfi_def_cfa_offset 48
	stp	x29, x30, [sp, #32]             ; 16-byte Folded Spill
	add	x29, sp, #32
	.cfi_def_cfa w29, 16
	.cfi_offset w30, -8
	.cfi_offset w29, -16
	stur	x0, [x29, #-8]
	ldur	x3, [x29, #-8]
	sub	x0, x29, #12
	mov	x1, #4
	mov	x2, #1
	bl	_fread
	str	x0, [sp, #8]
	ldr	x8, [sp, #8]
	subs	x8, x8, #1
	cset	w8, eq
	tbnz	w8, #0, LBB54_2
	b	LBB54_1
LBB54_1:
	mov	w0, #1
	adrp	x1, l_.str.113@PAGE
	add	x1, x1, l_.str.113@PAGEOFF
	bl	_err
LBB54_2:
	str	wzr, [sp, #4]
	b	LBB54_3
LBB54_3:                                ; =>This Inner Loop Header: Depth=1
	ldr	w8, [sp, #4]
	subs	w8, w8, #4
	cset	w8, ge
	tbnz	w8, #0, LBB54_6
	b	LBB54_4
LBB54_4:                                ;   in Loop: Header=BB54_3 Depth=1
	ldr	w9, [sp, #4]
	mov	w8, #3
	subs	w9, w8, w9
	sub	x8, x29, #12
	add	x8, x8, w9, sxtw
	ldrb	w8, [x8]
	ldrsw	x10, [sp, #4]
	add	x9, sp, #16
	add	x9, x9, x10
	strb	w8, [x9]
	b	LBB54_5
LBB54_5:                                ;   in Loop: Header=BB54_3 Depth=1
	ldr	w8, [sp, #4]
	add	w8, w8, #1
	str	w8, [sp, #4]
	b	LBB54_3
LBB54_6:
	ldr	w0, [sp, #16]
	.cfi_def_cfa wsp, 48
	ldp	x29, x30, [sp, #32]             ; 16-byte Folded Reload
	add	sp, sp, #48
	.cfi_def_cfa_offset 0
	.cfi_restore w30
	.cfi_restore w29
	ret
	.cfi_endproc
                                        ; -- End function
	.globl	__ZN14pascal_vincentC1EiiPilPv  ; -- Begin function _ZN14pascal_vincentC1EiiPilPv
	.weak_def_can_be_hidden	__ZN14pascal_vincentC1EiiPilPv
	.p2align	2
__ZN14pascal_vincentC1EiiPilPv:         ; @_ZN14pascal_vincentC1EiiPilPv
	.cfi_startproc
; %bb.0:
	sub	sp, sp, #64
	.cfi_def_cfa_offset 64
	stp	x29, x30, [sp, #48]             ; 16-byte Folded Spill
	add	x29, sp, #48
	.cfi_def_cfa w29, 16
	.cfi_offset w30, -8
	.cfi_offset w29, -16
	stur	x0, [x29, #-8]
	stur	w1, [x29, #-12]
	stur	w2, [x29, #-16]
	str	x3, [sp, #24]
	str	x4, [sp, #16]
	str	x5, [sp, #8]
	ldur	x0, [x29, #-8]
	str	x0, [sp]                        ; 8-byte Folded Spill
	ldur	w1, [x29, #-12]
	ldur	w2, [x29, #-16]
	ldr	x3, [sp, #24]
	ldr	x4, [sp, #16]
	ldr	x5, [sp, #8]
	bl	__ZN14pascal_vincentC2EiiPilPv
	ldr	x0, [sp]                        ; 8-byte Folded Reload
	.cfi_def_cfa wsp, 64
	ldp	x29, x30, [sp, #48]             ; 16-byte Folded Reload
	add	sp, sp, #64
	.cfi_def_cfa_offset 0
	.cfi_restore w30
	.cfi_restore w29
	ret
	.cfi_endproc
                                        ; -- End function
	.globl	__ZN14pascal_vincentC2EiiPilPv  ; -- Begin function _ZN14pascal_vincentC2EiiPilPv
	.weak_def_can_be_hidden	__ZN14pascal_vincentC2EiiPilPv
	.p2align	2
__ZN14pascal_vincentC2EiiPilPv:         ; @_ZN14pascal_vincentC2EiiPilPv
	.cfi_startproc
; %bb.0:
	sub	sp, sp, #48
	.cfi_def_cfa_offset 48
	str	x0, [sp, #40]
	str	w1, [sp, #36]
	str	w2, [sp, #32]
	str	x3, [sp, #24]
	str	x4, [sp, #16]
	str	x5, [sp, #8]
	ldr	x0, [sp, #40]
	ldr	w8, [sp, #36]
	str	w8, [x0]
	ldr	w8, [sp, #32]
	str	w8, [x0, #4]
	ldr	x8, [sp, #24]
	str	x8, [x0, #8]
	ldr	x8, [sp, #16]
	str	x8, [x0, #16]
	ldr	x8, [sp, #8]
	str	x8, [x0, #24]
	add	sp, sp, #48
	.cfi_def_cfa_offset 0
	ret
	.cfi_endproc
                                        ; -- End function
	.globl	__ZN6tensorIfLi64ELi1ELi28ELi28EE6set_n0Ei ; -- Begin function _ZN6tensorIfLi64ELi1ELi28ELi28EE6set_n0Ei
	.weak_definition	__ZN6tensorIfLi64ELi1ELi28ELi28EE6set_n0Ei
	.p2align	2
__ZN6tensorIfLi64ELi1ELi28ELi28EE6set_n0Ei: ; @_ZN6tensorIfLi64ELi1ELi28ELi28EE6set_n0Ei
	.cfi_startproc
; %bb.0:
	sub	sp, sp, #48
	.cfi_def_cfa_offset 48
	stp	x29, x30, [sp, #32]             ; 16-byte Folded Spill
	add	x29, sp, #32
	.cfi_def_cfa w29, 16
	.cfi_offset w30, -8
	.cfi_offset w29, -16
	stur	x0, [x29, #-8]
	stur	w1, [x29, #-12]
	ldur	x8, [x29, #-8]
	str	x8, [sp, #8]                    ; 8-byte Folded Spill
	ldur	w8, [x29, #-12]
	subs	w8, w8, #64
	cset	w8, le
	tbnz	w8, #0, LBB57_2
	b	LBB57_1
LBB57_1:
	adrp	x0, l___func__._ZN6tensorIfLi2ELi1ELi1ELi1EE6set_n0Ei@PAGE
	add	x0, x0, l___func__._ZN6tensorIfLi2ELi1ELi1ELi1EE6set_n0Ei@PAGEOFF
	adrp	x1, l_.str.29@PAGE
	add	x1, x1, l_.str.29@PAGEOFF
	mov	w2, #111
	adrp	x3, l_.str.36@PAGE
	add	x3, x3, l_.str.36@PAGEOFF
	bl	___assert_rtn
LBB57_2:
	b	LBB57_3
LBB57_3:
	ldr	x9, [sp, #8]                    ; 8-byte Folded Reload
	ldur	w8, [x29, #-12]
	str	w8, [x9]
	.cfi_def_cfa wsp, 48
	ldp	x29, x30, [sp, #32]             ; 16-byte Folded Reload
	add	sp, sp, #48
	.cfi_def_cfa_offset 0
	.cfi_restore w30
	.cfi_restore w29
	ret
	.cfi_endproc
                                        ; -- End function
	.globl	__ZN6tensorIfLi64ELi1ELi28ELi28EEclEiiii ; -- Begin function _ZN6tensorIfLi64ELi1ELi28ELi28EEclEiiii
	.weak_definition	__ZN6tensorIfLi64ELi1ELi28ELi28EEclEiiii
	.p2align	2
__ZN6tensorIfLi64ELi1ELi28ELi28EEclEiiii: ; @_ZN6tensorIfLi64ELi1ELi28ELi28EEclEiiii
	.cfi_startproc
; %bb.0:
	sub	sp, sp, #32
	.cfi_def_cfa_offset 32
	str	x0, [sp, #24]
	str	w1, [sp, #20]
	str	w2, [sp, #16]
	str	w3, [sp, #12]
	str	w4, [sp, #8]
	ldr	x8, [sp, #24]
	add	x8, x8, #4
	ldrsw	x9, [sp, #20]
	mov	x10, #3136
	mul	x9, x9, x10
	add	x8, x8, x9
	ldrsw	x9, [sp, #16]
	mul	x9, x9, x10
	add	x8, x8, x9
	ldrsw	x9, [sp, #12]
	mov	x10, #112
	mul	x9, x9, x10
	add	x8, x8, x9
	ldrsw	x9, [sp, #8]
	add	x0, x8, x9, lsl #2
	add	sp, sp, #32
	.cfi_def_cfa_offset 0
	ret
	.cfi_endproc
                                        ; -- End function
	.globl	__ZN6tensorIiLi64ELi1ELi1ELi1EE6set_n0Ei ; -- Begin function _ZN6tensorIiLi64ELi1ELi1ELi1EE6set_n0Ei
	.weak_definition	__ZN6tensorIiLi64ELi1ELi1ELi1EE6set_n0Ei
	.p2align	2
__ZN6tensorIiLi64ELi1ELi1ELi1EE6set_n0Ei: ; @_ZN6tensorIiLi64ELi1ELi1ELi1EE6set_n0Ei
	.cfi_startproc
; %bb.0:
	sub	sp, sp, #48
	.cfi_def_cfa_offset 48
	stp	x29, x30, [sp, #32]             ; 16-byte Folded Spill
	add	x29, sp, #32
	.cfi_def_cfa w29, 16
	.cfi_offset w30, -8
	.cfi_offset w29, -16
	stur	x0, [x29, #-8]
	stur	w1, [x29, #-12]
	ldur	x8, [x29, #-8]
	str	x8, [sp, #8]                    ; 8-byte Folded Spill
	ldur	w8, [x29, #-12]
	subs	w8, w8, #64
	cset	w8, le
	tbnz	w8, #0, LBB59_2
	b	LBB59_1
LBB59_1:
	adrp	x0, l___func__._ZN6tensorIfLi2ELi1ELi1ELi1EE6set_n0Ei@PAGE
	add	x0, x0, l___func__._ZN6tensorIfLi2ELi1ELi1ELi1EE6set_n0Ei@PAGEOFF
	adrp	x1, l_.str.29@PAGE
	add	x1, x1, l_.str.29@PAGEOFF
	mov	w2, #111
	adrp	x3, l_.str.36@PAGE
	add	x3, x3, l_.str.36@PAGEOFF
	bl	___assert_rtn
LBB59_2:
	b	LBB59_3
LBB59_3:
	ldr	x9, [sp, #8]                    ; 8-byte Folded Reload
	ldur	w8, [x29, #-12]
	str	w8, [x9]
	.cfi_def_cfa wsp, 48
	ldp	x29, x30, [sp, #32]             ; 16-byte Folded Reload
	add	sp, sp, #48
	.cfi_def_cfa_offset 0
	.cfi_restore w30
	.cfi_restore w29
	ret
	.cfi_endproc
                                        ; -- End function
	.globl	__ZN6tensorIiLi64ELi1ELi1ELi1EEclEiiii ; -- Begin function _ZN6tensorIiLi64ELi1ELi1ELi1EEclEiiii
	.weak_definition	__ZN6tensorIiLi64ELi1ELi1ELi1EEclEiiii
	.p2align	2
__ZN6tensorIiLi64ELi1ELi1ELi1EEclEiiii: ; @_ZN6tensorIiLi64ELi1ELi1ELi1EEclEiiii
	.cfi_startproc
; %bb.0:
	sub	sp, sp, #32
	.cfi_def_cfa_offset 32
	str	x0, [sp, #24]
	str	w1, [sp, #20]
	str	w2, [sp, #16]
	str	w3, [sp, #12]
	str	w4, [sp, #8]
	ldr	x8, [sp, #24]
	add	x8, x8, #4
	ldrsw	x9, [sp, #20]
	add	x8, x8, x9, lsl #2
	ldrsw	x9, [sp, #16]
	add	x8, x8, x9, lsl #2
	ldrsw	x9, [sp, #12]
	add	x8, x8, x9, lsl #2
	ldrsw	x9, [sp, #8]
	add	x0, x8, x9, lsl #2
	add	sp, sp, #32
	.cfi_def_cfa_offset 0
	ret
	.cfi_endproc
                                        ; -- End function
	.globl	__Z6to_devI6tensorIfLi64ELi1ELi28ELi28EEEvPT_i ; -- Begin function _Z6to_devI6tensorIfLi64ELi1ELi28ELi28EEEvPT_i
	.weak_definition	__Z6to_devI6tensorIfLi64ELi1ELi28ELi28EEEvPT_i
	.p2align	2
__Z6to_devI6tensorIfLi64ELi1ELi28ELi28EEEvPT_i: ; @_Z6to_devI6tensorIfLi64ELi1ELi28ELi28EEEvPT_i
	.cfi_startproc
; %bb.0:
	sub	sp, sp, #16
	.cfi_def_cfa_offset 16
	str	x0, [sp, #8]
	str	w1, [sp, #4]
	add	sp, sp, #16
	.cfi_def_cfa_offset 0
	ret
	.cfi_endproc
                                        ; -- End function
	.globl	__Z6to_devI6tensorIiLi64ELi1ELi1ELi1EEEvPT_i ; -- Begin function _Z6to_devI6tensorIiLi64ELi1ELi1ELi1EEEvPT_i
	.weak_definition	__Z6to_devI6tensorIiLi64ELi1ELi1ELi1EEEvPT_i
	.p2align	2
__Z6to_devI6tensorIiLi64ELi1ELi1ELi1EEEvPT_i: ; @_Z6to_devI6tensorIiLi64ELi1ELi1ELi1EEEvPT_i
	.cfi_startproc
; %bb.0:
	sub	sp, sp, #16
	.cfi_def_cfa_offset 16
	str	x0, [sp, #8]
	str	w1, [sp, #4]
	add	sp, sp, #16
	.cfi_def_cfa_offset 0
	ret
	.cfi_endproc
                                        ; -- End function
	.globl	__Z14ada_delta_mainiPPc         ; -- Begin function _Z14ada_delta_mainiPPc
	.p2align	2
__Z14ada_delta_mainiPPc:                ; @_Z14ada_delta_mainiPPc
	.cfi_startproc
; %bb.0:
	sub	sp, sp, #368
	.cfi_def_cfa_offset 368
	stp	x28, x27, [sp, #336]            ; 16-byte Folded Spill
	stp	x29, x30, [sp, #352]            ; 16-byte Folded Spill
	add	x29, sp, #352
	.cfi_def_cfa w29, 16
	.cfi_offset w30, -8
	.cfi_offset w29, -16
	.cfi_offset w27, -24
	.cfi_offset w28, -32
	stur	w0, [x29, #-20]
	stur	x1, [x29, #-32]
	ldur	w0, [x29, #-20]
	ldur	x1, [x29, #-32]
	sub	x8, x29, #152
	bl	__ZL10parse_argsiPPc
	ldur	w8, [x29, #-36]
	subs	w8, w8, #0
	cset	w8, ne
	tbnz	w8, #0, LBB63_2
	b	LBB63_1
LBB63_1:
	ldur	w8, [x29, #-40]
	subs	w8, w8, #0
	cset	w8, eq
	tbnz	w8, #0, LBB63_3
	b	LBB63_2
LBB63_2:
	ldur	x8, [x29, #-32]
	ldr	x0, [x8]
	bl	__ZL5usagePKc
	b	LBB63_3
LBB63_3:
	mov	w1, #2
	str	w1, [sp, #92]                   ; 4-byte Folded Spill
	stur	w1, [x29, #-156]
	sub	x0, x29, #168
	fmov	s0, #10.00000000
	bl	__ZN6tensorIfLi2ELi1ELi1ELi1EE10init_constEif
	ldr	w1, [sp, #92]                   ; 4-byte Folded Reload
	add	x0, sp, #172
	movi	d0, #0000000000000000
	bl	__ZN6tensorIfLi2ELi1ELi1ELi1EE10init_constEif
	ldur	s0, [x29, #-136]
	add	x0, sp, #112
	mov	w8, #26214
	movk	w8, #16230, lsl #16
	fmov	s1, w8
	mov	w8, #14269
	movk	w8, #13702, lsl #16
	fmov	s2, w8
	bl	__ZN8AdaDeltaILi2ELi1ELi1ELi1EE4initEfff
	str	wzr, [sp, #108]
	b	LBB63_4
LBB63_4:                                ; =>This Inner Loop Header: Depth=1
	ldr	w8, [sp, #108]
	subs	w8, w8, #100
	cset	w8, ge
	tbnz	w8, #0, LBB63_7
	b	LBB63_5
LBB63_5:                                ;   in Loop: Header=BB63_4 Depth=1
	fmov	s0, #10.00000000
	str	s0, [sp, #104]
	fmov	s0, #1.00000000
	str	s0, [sp, #100]
	sub	x0, x29, #168
	str	x0, [sp, #72]                   ; 8-byte Folded Spill
	mov	w4, #0
	str	w4, [sp, #60]                   ; 4-byte Folded Spill
	mov	x1, x4
	mov	x2, x4
	mov	x3, x4
	bl	__ZN6tensorIfLi2ELi1ELi1ELi1EEclEiiii
	ldr	w4, [sp, #60]                   ; 4-byte Folded Reload
	mov	x8, x0
	ldr	x0, [sp, #72]                   ; 8-byte Folded Reload
	ldr	s0, [x8]
	ldr	s1, [sp, #104]
	fdiv	s0, s0, s1
	str	s0, [sp, #40]                   ; 4-byte Folded Spill
	mov	x1, x4
	mov	x2, x4
	mov	x3, x4
	bl	__ZN6tensorIfLi2ELi1ELi1ELi1EEclEiiii
	ldr	w4, [sp, #60]                   ; 4-byte Folded Reload
	mov	x8, x0
	ldr	x0, [sp, #72]                   ; 8-byte Folded Reload
	ldr	s0, [x8]
	ldr	s1, [sp, #104]
	fdiv	s0, s0, s1
	str	s0, [sp, #36]                   ; 4-byte Folded Spill
	mov	w1, #1
	str	w1, [sp, #56]                   ; 4-byte Folded Spill
	mov	x2, x4
	mov	x3, x4
	bl	__ZN6tensorIfLi2ELi1ELi1ELi1EEclEiiii
	ldr	w1, [sp, #56]                   ; 4-byte Folded Reload
	ldr	w4, [sp, #60]                   ; 4-byte Folded Reload
	mov	x8, x0
	ldr	x0, [sp, #72]                   ; 8-byte Folded Reload
	ldr	s0, [x8]
	ldr	s1, [sp, #100]
	fdiv	s0, s0, s1
	str	s0, [sp, #32]                   ; 4-byte Folded Spill
	mov	x2, x4
	mov	x3, x4
	bl	__ZN6tensorIfLi2ELi1ELi1ELi1EEclEiiii
	ldr	s2, [sp, #32]                   ; 4-byte Folded Reload
	ldr	s1, [sp, #36]                   ; 4-byte Folded Reload
	ldr	s0, [sp, #40]                   ; 4-byte Folded Reload
	ldr	w4, [sp, #60]                   ; 4-byte Folded Reload
	mov	x8, x0
	ldr	x0, [sp, #72]                   ; 8-byte Folded Reload
	ldr	s3, [x8]
	ldr	s4, [sp, #100]
	fdiv	s3, s3, s4
	fmul	s2, s2, s3
	fmadd	s0, s0, s1, s2
	str	s0, [sp, #96]
	mov	x1, x4
	mov	x2, x4
	mov	x3, x4
	bl	__ZN6tensorIfLi2ELi1ELi1ELi1EEclEiiii
	ldr	w4, [sp, #60]                   ; 4-byte Folded Reload
	ldr	s1, [x0]
	fmov	s0, #2.00000000
	str	s0, [sp, #48]                   ; 4-byte Folded Spill
	fmul	s0, s0, s1
	ldr	s1, [sp, #104]
	ldr	s2, [sp, #104]
	fmul	s1, s1, s2
	fdiv	s0, s0, s1
	str	s0, [sp, #44]                   ; 4-byte Folded Spill
	add	x0, sp, #172
	str	x0, [sp, #80]                   ; 8-byte Folded Spill
	mov	x1, x4
	mov	x2, x4
	mov	x3, x4
	bl	__ZN6tensorIfLi2ELi1ELi1ELi1EEclEiiii
	ldr	s0, [sp, #44]                   ; 4-byte Folded Reload
	ldr	w1, [sp, #56]                   ; 4-byte Folded Reload
	ldr	w4, [sp, #60]                   ; 4-byte Folded Reload
	mov	x8, x0
	ldr	x0, [sp, #72]                   ; 8-byte Folded Reload
	str	s0, [x8]
	mov	x2, x4
	mov	x3, x4
	bl	__ZN6tensorIfLi2ELi1ELi1ELi1EEclEiiii
	ldr	s0, [sp, #48]                   ; 4-byte Folded Reload
	ldr	w1, [sp, #56]                   ; 4-byte Folded Reload
	ldr	w4, [sp, #60]                   ; 4-byte Folded Reload
	mov	x8, x0
	ldr	x0, [sp, #80]                   ; 8-byte Folded Reload
	ldr	s1, [x8]
	fmul	s0, s0, s1
	ldr	s1, [sp, #100]
	ldr	s2, [sp, #100]
	fmul	s1, s1, s2
	fdiv	s0, s0, s1
	str	s0, [sp, #52]                   ; 4-byte Folded Spill
	mov	x2, x4
	mov	x3, x4
	bl	__ZN6tensorIfLi2ELi1ELi1ELi1EEclEiiii
	ldr	s0, [sp, #52]                   ; 4-byte Folded Reload
	ldr	w4, [sp, #60]                   ; 4-byte Folded Reload
	mov	x8, x0
	ldr	x0, [sp, #72]                   ; 8-byte Folded Reload
	str	s0, [x8]
	mov	x1, x4
	mov	x2, x4
	mov	x3, x4
	bl	__ZN6tensorIfLi2ELi1ELi1ELi1EEclEiiii
	ldr	w1, [sp, #56]                   ; 4-byte Folded Reload
	ldr	w4, [sp, #60]                   ; 4-byte Folded Reload
	mov	x8, x0
	ldr	x0, [sp, #72]                   ; 8-byte Folded Reload
	ldr	s0, [x8]
	fcvt	d0, s0
	str	d0, [sp, #64]                   ; 8-byte Folded Spill
	mov	x2, x4
	mov	x3, x4
	bl	__ZN6tensorIfLi2ELi1ELi1ELi1EEclEiiii
	ldr	d2, [sp, #64]                   ; 8-byte Folded Reload
	ldr	s0, [x0]
	fcvt	d1, s0
	ldr	s0, [sp, #96]
	fcvt	d0, s0
	mov	x8, sp
	str	d2, [x8]
	str	d1, [x8, #8]
	str	d0, [x8, #16]
	adrp	x0, l_.str.116@PAGE
	add	x0, x0, l_.str.116@PAGEOFF
	bl	_printf
	ldr	x1, [sp, #72]                   ; 8-byte Folded Reload
	ldr	x2, [sp, #80]                   ; 8-byte Folded Reload
	add	x0, sp, #112
	bl	__ZN8AdaDeltaILi2ELi1ELi1ELi1EE6updateER6tensorIfLi2ELi1ELi1ELi1EES3_
	b	LBB63_6
LBB63_6:                                ;   in Loop: Header=BB63_4 Depth=1
	ldr	w8, [sp, #108]
	add	w8, w8, #1
	str	w8, [sp, #108]
	b	LBB63_4
LBB63_7:
	mov	w0, #0
	.cfi_def_cfa wsp, 368
	ldp	x29, x30, [sp, #352]            ; 16-byte Folded Reload
	ldp	x28, x27, [sp, #336]            ; 16-byte Folded Reload
	add	sp, sp, #368
	.cfi_def_cfa_offset 0
	.cfi_restore w30
	.cfi_restore w29
	.cfi_restore w27
	.cfi_restore w28
	ret
	.cfi_endproc
                                        ; -- End function
	.globl	__ZN8AdaDeltaILi2ELi1ELi1ELi1EE4initEfff ; -- Begin function _ZN8AdaDeltaILi2ELi1ELi1ELi1EE4initEfff
	.weak_definition	__ZN8AdaDeltaILi2ELi1ELi1ELi1EE4initEfff
	.p2align	2
__ZN8AdaDeltaILi2ELi1ELi1ELi1EE4initEfff: ; @_ZN8AdaDeltaILi2ELi1ELi1ELi1EE4initEfff
	.cfi_startproc
; %bb.0:
	sub	sp, sp, #64
	.cfi_def_cfa_offset 64
	stp	x29, x30, [sp, #48]             ; 16-byte Folded Spill
	add	x29, sp, #48
	.cfi_def_cfa w29, 16
	.cfi_offset w30, -8
	.cfi_offset w29, -16
	stur	x0, [x29, #-8]
	stur	s0, [x29, #-12]
	stur	s1, [x29, #-16]
	stur	s2, [x29, #-20]
	ldur	x8, [x29, #-8]
	str	x8, [sp, #16]                   ; 8-byte Folded Spill
	ldur	w9, [x29, #-12]
	str	w9, [x8, #48]
	ldur	w9, [x29, #-16]
	str	w9, [x8, #52]
	ldur	w9, [x29, #-20]
	str	w9, [x8, #56]
	add	x0, x8, #12
	mov	w1, #2
	str	w1, [sp, #24]                   ; 4-byte Folded Spill
	movi	d0, #0000000000000000
	str	s0, [sp, #12]                   ; 4-byte Folded Spill
	bl	__ZN6tensorIfLi2ELi1ELi1ELi1EE10init_constEif
	ldr	s0, [sp, #12]                   ; 4-byte Folded Reload
	ldr	x0, [sp, #16]                   ; 8-byte Folded Reload
	ldr	w1, [sp, #24]                   ; 4-byte Folded Reload
	bl	__ZN6tensorIfLi2ELi1ELi1ELi1EE10init_constEif
	ldr	x8, [sp, #16]                   ; 8-byte Folded Reload
	ldr	w1, [sp, #24]                   ; 4-byte Folded Reload
	add	x0, x8, #24
	bl	__ZN6tensorIfLi2ELi1ELi1ELi1EE6set_n0Ei
	ldr	x8, [sp, #16]                   ; 8-byte Folded Reload
	ldr	w1, [sp, #24]                   ; 4-byte Folded Reload
	add	x0, x8, #36
	bl	__ZN6tensorIfLi2ELi1ELi1ELi1EE6set_n0Ei
	.cfi_def_cfa wsp, 64
	ldp	x29, x30, [sp, #48]             ; 16-byte Folded Reload
	add	sp, sp, #64
	.cfi_def_cfa_offset 0
	.cfi_restore w30
	.cfi_restore w29
	ret
	.cfi_endproc
                                        ; -- End function
	.globl	__ZN8AdaDeltaILi2ELi1ELi1ELi1EE6updateER6tensorIfLi2ELi1ELi1ELi1EES3_ ; -- Begin function _ZN8AdaDeltaILi2ELi1ELi1ELi1EE6updateER6tensorIfLi2ELi1ELi1ELi1EES3_
	.weak_definition	__ZN8AdaDeltaILi2ELi1ELi1ELi1EE6updateER6tensorIfLi2ELi1ELi1ELi1EES3_
	.p2align	2
__ZN8AdaDeltaILi2ELi1ELi1ELi1EE6updateER6tensorIfLi2ELi1ELi1ELi1EES3_: ; @_ZN8AdaDeltaILi2ELi1ELi1ELi1EE6updateER6tensorIfLi2ELi1ELi1ELi1EES3_
	.cfi_startproc
; %bb.0:
	sub	sp, sp, #64
	.cfi_def_cfa_offset 64
	stp	x29, x30, [sp, #48]             ; 16-byte Folded Spill
	add	x29, sp, #48
	.cfi_def_cfa w29, 16
	.cfi_offset w30, -8
	.cfi_offset w29, -16
	stur	x0, [x29, #-8]
	stur	x1, [x29, #-16]
	str	x2, [sp, #24]
	ldur	x8, [x29, #-8]
	str	x8, [sp, #16]                   ; 8-byte Folded Spill
	ldur	x8, [x29, #-16]
	ldr	w8, [x8]
	subs	w8, w8, #2
	cset	w8, eq
	tbnz	w8, #0, LBB65_2
	b	LBB65_1
LBB65_1:
	adrp	x0, l___func__._ZN8AdaDeltaILi2ELi1ELi1ELi1EE6updateER6tensorIfLi2ELi1ELi1ELi1EES3_@PAGE
	add	x0, x0, l___func__._ZN8AdaDeltaILi2ELi1ELi1ELi1EE6updateER6tensorIfLi2ELi1ELi1ELi1EES3_@PAGEOFF
	adrp	x1, l_.str.117@PAGE
	add	x1, x1, l_.str.117@PAGEOFF
	mov	w2, #49
	adrp	x3, l_.str.118@PAGE
	add	x3, x3, l_.str.118@PAGEOFF
	bl	___assert_rtn
LBB65_2:
	b	LBB65_3
LBB65_3:
	ldr	x0, [sp, #16]                   ; 8-byte Folded Reload
	ldr	s0, [x0, #52]
	bl	__ZN6tensorIfLi2ELi1ELi1ELi1EE4mul_Ef
	ldr	x8, [sp, #16]                   ; 8-byte Folded Reload
	ldr	s1, [x8, #52]
	fmov	s0, #1.00000000
	str	s0, [sp, #12]                   ; 4-byte Folded Spill
	fsub	s0, s0, s1
	ldr	x1, [sp, #24]
	ldr	x2, [sp, #24]
	bl	__ZN6tensorIfLi2ELi1ELi1ELi1EE8addcmul_EfRS0_S1_
	ldr	x0, [sp, #16]                   ; 8-byte Folded Reload
	ldr	s0, [x0, #56]
	add	x1, x0, #24
	bl	__ZN6tensorIfLi2ELi1ELi1ELi1EE3addEfRS0_
	bl	__ZN6tensorIfLi2ELi1ELi1ELi1EE5sqrt_Ev
	ldr	x8, [sp, #16]                   ; 8-byte Folded Reload
	add	x0, x8, #12
	ldr	s0, [x8, #56]
	add	x1, x8, #36
	bl	__ZN6tensorIfLi2ELi1ELi1ELi1EE3addEfRS0_
	bl	__ZN6tensorIfLi2ELi1ELi1ELi1EE5sqrt_Ev
	ldr	x8, [sp, #16]                   ; 8-byte Folded Reload
	add	x1, x8, #24
	bl	__ZN6tensorIfLi2ELi1ELi1ELi1EE4div_ERS0_
	ldr	x1, [sp, #24]
	bl	__ZN6tensorIfLi2ELi1ELi1ELi1EE4mul_ERS0_
	ldr	x8, [sp, #16]                   ; 8-byte Folded Reload
	add	x0, x8, #12
	ldr	s0, [x8, #52]
	bl	__ZN6tensorIfLi2ELi1ELi1ELi1EE4mul_Ef
	ldr	s0, [sp, #12]                   ; 4-byte Folded Reload
	ldr	x8, [sp, #16]                   ; 8-byte Folded Reload
	ldr	s1, [x8, #52]
	fsub	s0, s0, s1
	add	x1, x8, #36
	add	x2, x8, #36
	bl	__ZN6tensorIfLi2ELi1ELi1ELi1EE8addcmul_EfRS0_S1_
	ldr	x8, [sp, #16]                   ; 8-byte Folded Reload
	ldur	x0, [x29, #-16]
	ldr	s0, [x8, #48]
	fneg	s0, s0
	add	x1, x8, #36
	bl	__ZN6tensorIfLi2ELi1ELi1ELi1EE4add_EfRS0_
	.cfi_def_cfa wsp, 64
	ldp	x29, x30, [sp, #48]             ; 16-byte Folded Reload
	add	sp, sp, #64
	.cfi_def_cfa_offset 0
	.cfi_restore w30
	.cfi_restore w29
	ret
	.cfi_endproc
                                        ; -- End function
	.globl	__ZN6tensorIfLi2ELi1ELi1ELi1EE4mul_Ef ; -- Begin function _ZN6tensorIfLi2ELi1ELi1ELi1EE4mul_Ef
	.weak_definition	__ZN6tensorIfLi2ELi1ELi1ELi1EE4mul_Ef
	.p2align	2
__ZN6tensorIfLi2ELi1ELi1ELi1EE4mul_Ef:  ; @_ZN6tensorIfLi2ELi1ELi1ELi1EE4mul_Ef
	.cfi_startproc
; %bb.0:
	sub	sp, sp, #80
	.cfi_def_cfa_offset 80
	stp	x29, x30, [sp, #64]             ; 16-byte Folded Spill
	add	x29, sp, #64
	.cfi_def_cfa w29, 16
	.cfi_offset w30, -8
	.cfi_offset w29, -16
	stur	x0, [x29, #-8]
	stur	s0, [x29, #-12]
	ldur	x8, [x29, #-8]
	str	x8, [sp, #16]                   ; 8-byte Folded Spill
	stur	x8, [x29, #-24]
	ldur	x8, [x29, #-24]
	ldr	w8, [x8]
	subs	w8, w8, #0
	cset	w8, gt
	tbnz	w8, #0, LBB66_2
	b	LBB66_1
LBB66_1:
	adrp	x0, l___func__._ZN6tensorIfLi2ELi1ELi1ELi1EE4mul_Ef@PAGE
	add	x0, x0, l___func__._ZN6tensorIfLi2ELi1ELi1ELi1EE4mul_Ef@PAGEOFF
	adrp	x1, l_.str.29@PAGE
	add	x1, x1, l_.str.29@PAGEOFF
	mov	w2, #218
	adrp	x3, l_.str.119@PAGE
	add	x3, x3, l_.str.119@PAGEOFF
	bl	___assert_rtn
LBB66_2:
	b	LBB66_3
LBB66_3:
	stur	wzr, [x29, #-28]
	b	LBB66_4
LBB66_4:                                ; =>This Loop Header: Depth=1
                                        ;     Child Loop BB66_6 Depth 2
                                        ;       Child Loop BB66_8 Depth 3
                                        ;         Child Loop BB66_10 Depth 4
	ldr	x9, [sp, #16]                   ; 8-byte Folded Reload
	ldur	w8, [x29, #-28]
	ldr	w9, [x9]
	subs	w8, w8, w9
	cset	w8, ge
	tbnz	w8, #0, LBB66_19
	b	LBB66_5
LBB66_5:                                ;   in Loop: Header=BB66_4 Depth=1
	str	wzr, [sp, #32]
	b	LBB66_6
LBB66_6:                                ;   Parent Loop BB66_4 Depth=1
                                        ; =>  This Loop Header: Depth=2
                                        ;       Child Loop BB66_8 Depth 3
                                        ;         Child Loop BB66_10 Depth 4
	ldr	w8, [sp, #32]
	subs	w8, w8, #1
	cset	w8, ge
	tbnz	w8, #0, LBB66_17
	b	LBB66_7
LBB66_7:                                ;   in Loop: Header=BB66_6 Depth=2
	str	wzr, [sp, #28]
	b	LBB66_8
LBB66_8:                                ;   Parent Loop BB66_4 Depth=1
                                        ;     Parent Loop BB66_6 Depth=2
                                        ; =>    This Loop Header: Depth=3
                                        ;         Child Loop BB66_10 Depth 4
	ldr	w8, [sp, #28]
	subs	w8, w8, #1
	cset	w8, ge
	tbnz	w8, #0, LBB66_15
	b	LBB66_9
LBB66_9:                                ;   in Loop: Header=BB66_8 Depth=3
	str	wzr, [sp, #24]
	b	LBB66_10
LBB66_10:                               ;   Parent Loop BB66_4 Depth=1
                                        ;     Parent Loop BB66_6 Depth=2
                                        ;       Parent Loop BB66_8 Depth=3
                                        ; =>      This Inner Loop Header: Depth=4
	ldr	w8, [sp, #24]
	subs	w8, w8, #1
	cset	w8, ge
	tbnz	w8, #0, LBB66_13
	b	LBB66_11
LBB66_11:                               ;   in Loop: Header=BB66_10 Depth=4
	ldur	s0, [x29, #-12]
	str	s0, [sp, #12]                   ; 4-byte Folded Spill
	ldur	x0, [x29, #-24]
	ldur	w1, [x29, #-28]
	ldr	w2, [sp, #32]
	ldr	w3, [sp, #28]
	ldr	w4, [sp, #24]
	bl	__ZN6tensorIfLi2ELi1ELi1ELi1EEclEiiii
	ldr	s1, [sp, #12]                   ; 4-byte Folded Reload
	ldr	s0, [x0]
	fmul	s0, s0, s1
	str	s0, [x0]
	b	LBB66_12
LBB66_12:                               ;   in Loop: Header=BB66_10 Depth=4
	ldr	w8, [sp, #24]
	add	w8, w8, #1
	str	w8, [sp, #24]
	b	LBB66_10
LBB66_13:                               ;   in Loop: Header=BB66_8 Depth=3
	b	LBB66_14
LBB66_14:                               ;   in Loop: Header=BB66_8 Depth=3
	ldr	w8, [sp, #28]
	add	w8, w8, #1
	str	w8, [sp, #28]
	b	LBB66_8
LBB66_15:                               ;   in Loop: Header=BB66_6 Depth=2
	b	LBB66_16
LBB66_16:                               ;   in Loop: Header=BB66_6 Depth=2
	ldr	w8, [sp, #32]
	add	w8, w8, #1
	str	w8, [sp, #32]
	b	LBB66_6
LBB66_17:                               ;   in Loop: Header=BB66_4 Depth=1
	b	LBB66_18
LBB66_18:                               ;   in Loop: Header=BB66_4 Depth=1
	ldur	w8, [x29, #-28]
	add	w8, w8, #1
	stur	w8, [x29, #-28]
	b	LBB66_4
LBB66_19:
	ldur	x0, [x29, #-24]
	.cfi_def_cfa wsp, 80
	ldp	x29, x30, [sp, #64]             ; 16-byte Folded Reload
	add	sp, sp, #80
	.cfi_def_cfa_offset 0
	.cfi_restore w30
	.cfi_restore w29
	ret
	.cfi_endproc
                                        ; -- End function
	.globl	__ZN6tensorIfLi2ELi1ELi1ELi1EE8addcmul_EfRS0_S1_ ; -- Begin function _ZN6tensorIfLi2ELi1ELi1ELi1EE8addcmul_EfRS0_S1_
	.weak_definition	__ZN6tensorIfLi2ELi1ELi1ELi1EE8addcmul_EfRS0_S1_
	.p2align	2
__ZN6tensorIfLi2ELi1ELi1ELi1EE8addcmul_EfRS0_S1_: ; @_ZN6tensorIfLi2ELi1ELi1ELi1EE8addcmul_EfRS0_S1_
	.cfi_startproc
; %bb.0:
	sub	sp, sp, #96
	.cfi_def_cfa_offset 96
	stp	x29, x30, [sp, #80]             ; 16-byte Folded Spill
	add	x29, sp, #80
	.cfi_def_cfa w29, 16
	.cfi_offset w30, -8
	.cfi_offset w29, -16
	stur	x0, [x29, #-8]
	stur	s0, [x29, #-12]
	stur	x1, [x29, #-24]
	stur	x2, [x29, #-32]
	ldur	x8, [x29, #-8]
	str	x8, [sp, #16]                   ; 8-byte Folded Spill
	str	x8, [sp, #40]
	ldr	x8, [sp, #40]
	ldr	w8, [x8]
	ldur	x9, [x29, #-24]
	ldr	w9, [x9]
	subs	w8, w8, w9
	cset	w8, eq
	tbnz	w8, #0, LBB67_2
	b	LBB67_1
LBB67_1:
	adrp	x0, l___func__._ZN6tensorIfLi2ELi1ELi1ELi1EE8addcmul_EfRS0_S1_@PAGE
	add	x0, x0, l___func__._ZN6tensorIfLi2ELi1ELi1ELi1EE8addcmul_EfRS0_S1_@PAGEOFF
	adrp	x1, l_.str.29@PAGE
	add	x1, x1, l_.str.29@PAGEOFF
	mov	w2, #290
	adrp	x3, l_.str.37@PAGE
	add	x3, x3, l_.str.37@PAGEOFF
	bl	___assert_rtn
LBB67_2:
	b	LBB67_3
LBB67_3:
	ldr	x8, [sp, #40]
	ldr	w8, [x8]
	ldur	x9, [x29, #-32]
	ldr	w9, [x9]
	subs	w8, w8, w9
	cset	w8, eq
	tbnz	w8, #0, LBB67_5
	b	LBB67_4
LBB67_4:
	adrp	x0, l___func__._ZN6tensorIfLi2ELi1ELi1ELi1EE8addcmul_EfRS0_S1_@PAGE
	add	x0, x0, l___func__._ZN6tensorIfLi2ELi1ELi1ELi1EE8addcmul_EfRS0_S1_@PAGEOFF
	adrp	x1, l_.str.29@PAGE
	add	x1, x1, l_.str.29@PAGEOFF
	mov	w2, #291
	adrp	x3, l_.str.120@PAGE
	add	x3, x3, l_.str.120@PAGEOFF
	bl	___assert_rtn
LBB67_5:
	b	LBB67_6
LBB67_6:
	str	wzr, [sp, #36]
	b	LBB67_7
LBB67_7:                                ; =>This Loop Header: Depth=1
                                        ;     Child Loop BB67_9 Depth 2
                                        ;       Child Loop BB67_11 Depth 3
                                        ;         Child Loop BB67_13 Depth 4
	ldr	x9, [sp, #16]                   ; 8-byte Folded Reload
	ldr	w8, [sp, #36]
	ldr	w9, [x9]
	subs	w8, w8, w9
	cset	w8, ge
	tbnz	w8, #0, LBB67_22
	b	LBB67_8
LBB67_8:                                ;   in Loop: Header=BB67_7 Depth=1
	str	wzr, [sp, #32]
	b	LBB67_9
LBB67_9:                                ;   Parent Loop BB67_7 Depth=1
                                        ; =>  This Loop Header: Depth=2
                                        ;       Child Loop BB67_11 Depth 3
                                        ;         Child Loop BB67_13 Depth 4
	ldr	w8, [sp, #32]
	subs	w8, w8, #1
	cset	w8, ge
	tbnz	w8, #0, LBB67_20
	b	LBB67_10
LBB67_10:                               ;   in Loop: Header=BB67_9 Depth=2
	str	wzr, [sp, #28]
	b	LBB67_11
LBB67_11:                               ;   Parent Loop BB67_7 Depth=1
                                        ;     Parent Loop BB67_9 Depth=2
                                        ; =>    This Loop Header: Depth=3
                                        ;         Child Loop BB67_13 Depth 4
	ldr	w8, [sp, #28]
	subs	w8, w8, #1
	cset	w8, ge
	tbnz	w8, #0, LBB67_18
	b	LBB67_12
LBB67_12:                               ;   in Loop: Header=BB67_11 Depth=3
	str	wzr, [sp, #24]
	b	LBB67_13
LBB67_13:                               ;   Parent Loop BB67_7 Depth=1
                                        ;     Parent Loop BB67_9 Depth=2
                                        ;       Parent Loop BB67_11 Depth=3
                                        ; =>      This Inner Loop Header: Depth=4
	ldr	w8, [sp, #24]
	subs	w8, w8, #1
	cset	w8, ge
	tbnz	w8, #0, LBB67_16
	b	LBB67_14
LBB67_14:                               ;   in Loop: Header=BB67_13 Depth=4
	ldur	s0, [x29, #-12]
	str	s0, [sp, #4]                    ; 4-byte Folded Spill
	ldur	x0, [x29, #-24]
	ldr	w1, [sp, #36]
	ldr	w2, [sp, #32]
	ldr	w3, [sp, #28]
	ldr	w4, [sp, #24]
	bl	__ZN6tensorIfLi2ELi1ELi1ELi1EEclEiiii
	ldr	s0, [sp, #4]                    ; 4-byte Folded Reload
	ldr	s1, [x0]
	fmul	s0, s0, s1
	str	s0, [sp, #12]                   ; 4-byte Folded Spill
	ldur	x0, [x29, #-32]
	ldr	w1, [sp, #36]
	ldr	w2, [sp, #32]
	ldr	w3, [sp, #28]
	ldr	w4, [sp, #24]
	bl	__ZN6tensorIfLi2ELi1ELi1ELi1EEclEiiii
	ldr	s0, [x0]
	str	s0, [sp, #8]                    ; 4-byte Folded Spill
	ldr	x0, [sp, #40]
	ldr	w1, [sp, #36]
	ldr	w2, [sp, #32]
	ldr	w3, [sp, #28]
	ldr	w4, [sp, #24]
	bl	__ZN6tensorIfLi2ELi1ELi1ELi1EEclEiiii
	ldr	s1, [sp, #8]                    ; 4-byte Folded Reload
	ldr	s0, [sp, #12]                   ; 4-byte Folded Reload
	ldr	s2, [x0]
	fmadd	s0, s0, s1, s2
	str	s0, [x0]
	b	LBB67_15
LBB67_15:                               ;   in Loop: Header=BB67_13 Depth=4
	ldr	w8, [sp, #24]
	add	w8, w8, #1
	str	w8, [sp, #24]
	b	LBB67_13
LBB67_16:                               ;   in Loop: Header=BB67_11 Depth=3
	b	LBB67_17
LBB67_17:                               ;   in Loop: Header=BB67_11 Depth=3
	ldr	w8, [sp, #28]
	add	w8, w8, #1
	str	w8, [sp, #28]
	b	LBB67_11
LBB67_18:                               ;   in Loop: Header=BB67_9 Depth=2
	b	LBB67_19
LBB67_19:                               ;   in Loop: Header=BB67_9 Depth=2
	ldr	w8, [sp, #32]
	add	w8, w8, #1
	str	w8, [sp, #32]
	b	LBB67_9
LBB67_20:                               ;   in Loop: Header=BB67_7 Depth=1
	b	LBB67_21
LBB67_21:                               ;   in Loop: Header=BB67_7 Depth=1
	ldr	w8, [sp, #36]
	add	w8, w8, #1
	str	w8, [sp, #36]
	b	LBB67_7
LBB67_22:
	ldr	x0, [sp, #40]
	.cfi_def_cfa wsp, 96
	ldp	x29, x30, [sp, #80]             ; 16-byte Folded Reload
	add	sp, sp, #96
	.cfi_def_cfa_offset 0
	.cfi_restore w30
	.cfi_restore w29
	ret
	.cfi_endproc
                                        ; -- End function
	.globl	__ZN6tensorIfLi2ELi1ELi1ELi1EE3addEfRS0_ ; -- Begin function _ZN6tensorIfLi2ELi1ELi1ELi1EE3addEfRS0_
	.weak_definition	__ZN6tensorIfLi2ELi1ELi1ELi1EE3addEfRS0_
	.p2align	2
__ZN6tensorIfLi2ELi1ELi1ELi1EE3addEfRS0_: ; @_ZN6tensorIfLi2ELi1ELi1ELi1EE3addEfRS0_
	.cfi_startproc
; %bb.0:
	sub	sp, sp, #80
	.cfi_def_cfa_offset 80
	stp	x29, x30, [sp, #64]             ; 16-byte Folded Spill
	add	x29, sp, #64
	.cfi_def_cfa w29, 16
	.cfi_offset w30, -8
	.cfi_offset w29, -16
	stur	x0, [x29, #-8]
	stur	s0, [x29, #-12]
	stur	x1, [x29, #-24]
	ldur	x8, [x29, #-8]
	str	x8, [sp, #8]                    ; 8-byte Folded Spill
	str	x8, [sp, #32]
	ldr	x8, [sp, #32]
	ldr	w8, [x8]
	ldur	x9, [x29, #-24]
	ldr	w9, [x9]
	subs	w8, w8, w9
	cset	w8, eq
	tbnz	w8, #0, LBB68_2
	b	LBB68_1
LBB68_1:
	adrp	x0, l___func__._ZN6tensorIfLi2ELi1ELi1ELi1EE3addEfRS0_@PAGE
	add	x0, x0, l___func__._ZN6tensorIfLi2ELi1ELi1ELi1EE3addEfRS0_@PAGEOFF
	adrp	x1, l_.str.29@PAGE
	add	x1, x1, l_.str.29@PAGEOFF
	mov	w2, #309
	adrp	x3, l_.str.37@PAGE
	add	x3, x3, l_.str.37@PAGEOFF
	bl	___assert_rtn
LBB68_2:
	b	LBB68_3
LBB68_3:
	str	wzr, [sp, #28]
	b	LBB68_4
LBB68_4:                                ; =>This Loop Header: Depth=1
                                        ;     Child Loop BB68_6 Depth 2
                                        ;       Child Loop BB68_8 Depth 3
                                        ;         Child Loop BB68_10 Depth 4
	ldr	x9, [sp, #8]                    ; 8-byte Folded Reload
	ldr	w8, [sp, #28]
	ldr	w9, [x9]
	subs	w8, w8, w9
	cset	w8, ge
	tbnz	w8, #0, LBB68_19
	b	LBB68_5
LBB68_5:                                ;   in Loop: Header=BB68_4 Depth=1
	str	wzr, [sp, #24]
	b	LBB68_6
LBB68_6:                                ;   Parent Loop BB68_4 Depth=1
                                        ; =>  This Loop Header: Depth=2
                                        ;       Child Loop BB68_8 Depth 3
                                        ;         Child Loop BB68_10 Depth 4
	ldr	w8, [sp, #24]
	subs	w8, w8, #1
	cset	w8, ge
	tbnz	w8, #0, LBB68_17
	b	LBB68_7
LBB68_7:                                ;   in Loop: Header=BB68_6 Depth=2
	str	wzr, [sp, #20]
	b	LBB68_8
LBB68_8:                                ;   Parent Loop BB68_4 Depth=1
                                        ;     Parent Loop BB68_6 Depth=2
                                        ; =>    This Loop Header: Depth=3
                                        ;         Child Loop BB68_10 Depth 4
	ldr	w8, [sp, #20]
	subs	w8, w8, #1
	cset	w8, ge
	tbnz	w8, #0, LBB68_15
	b	LBB68_9
LBB68_9:                                ;   in Loop: Header=BB68_8 Depth=3
	str	wzr, [sp, #16]
	b	LBB68_10
LBB68_10:                               ;   Parent Loop BB68_4 Depth=1
                                        ;     Parent Loop BB68_6 Depth=2
                                        ;       Parent Loop BB68_8 Depth=3
                                        ; =>      This Inner Loop Header: Depth=4
	ldr	w8, [sp, #16]
	subs	w8, w8, #1
	cset	w8, ge
	tbnz	w8, #0, LBB68_13
	b	LBB68_11
LBB68_11:                               ;   in Loop: Header=BB68_10 Depth=4
	ldr	x0, [sp, #32]
	ldr	w1, [sp, #28]
	ldr	w2, [sp, #24]
	ldr	w3, [sp, #20]
	ldr	w4, [sp, #16]
	bl	__ZN6tensorIfLi2ELi1ELi1ELi1EEclEiiii
	ldr	s0, [x0]
	ldur	s1, [x29, #-12]
	fadd	s0, s0, s1
	str	s0, [sp, #4]                    ; 4-byte Folded Spill
	ldur	x0, [x29, #-24]
	ldr	w1, [sp, #28]
	ldr	w2, [sp, #24]
	ldr	w3, [sp, #20]
	ldr	w4, [sp, #16]
	bl	__ZN6tensorIfLi2ELi1ELi1ELi1EEclEiiii
	ldr	s0, [sp, #4]                    ; 4-byte Folded Reload
	str	s0, [x0]
	b	LBB68_12
LBB68_12:                               ;   in Loop: Header=BB68_10 Depth=4
	ldr	w8, [sp, #16]
	add	w8, w8, #1
	str	w8, [sp, #16]
	b	LBB68_10
LBB68_13:                               ;   in Loop: Header=BB68_8 Depth=3
	b	LBB68_14
LBB68_14:                               ;   in Loop: Header=BB68_8 Depth=3
	ldr	w8, [sp, #20]
	add	w8, w8, #1
	str	w8, [sp, #20]
	b	LBB68_8
LBB68_15:                               ;   in Loop: Header=BB68_6 Depth=2
	b	LBB68_16
LBB68_16:                               ;   in Loop: Header=BB68_6 Depth=2
	ldr	w8, [sp, #24]
	add	w8, w8, #1
	str	w8, [sp, #24]
	b	LBB68_6
LBB68_17:                               ;   in Loop: Header=BB68_4 Depth=1
	b	LBB68_18
LBB68_18:                               ;   in Loop: Header=BB68_4 Depth=1
	ldr	w8, [sp, #28]
	add	w8, w8, #1
	str	w8, [sp, #28]
	b	LBB68_4
LBB68_19:
	ldur	x0, [x29, #-24]
	.cfi_def_cfa wsp, 80
	ldp	x29, x30, [sp, #64]             ; 16-byte Folded Reload
	add	sp, sp, #80
	.cfi_def_cfa_offset 0
	.cfi_restore w30
	.cfi_restore w29
	ret
	.cfi_endproc
                                        ; -- End function
	.globl	__ZN6tensorIfLi2ELi1ELi1ELi1EE5sqrt_Ev ; -- Begin function _ZN6tensorIfLi2ELi1ELi1ELi1EE5sqrt_Ev
	.weak_definition	__ZN6tensorIfLi2ELi1ELi1ELi1EE5sqrt_Ev
	.p2align	2
__ZN6tensorIfLi2ELi1ELi1ELi1EE5sqrt_Ev: ; @_ZN6tensorIfLi2ELi1ELi1ELi1EE5sqrt_Ev
	.cfi_startproc
; %bb.0:
	sub	sp, sp, #64
	.cfi_def_cfa_offset 64
	stp	x29, x30, [sp, #48]             ; 16-byte Folded Spill
	add	x29, sp, #48
	.cfi_def_cfa w29, 16
	.cfi_offset w30, -8
	.cfi_offset w29, -16
	stur	x0, [x29, #-8]
	ldur	x8, [x29, #-8]
	str	x8, [sp, #8]                    ; 8-byte Folded Spill
	stur	x8, [x29, #-16]
	ldur	x8, [x29, #-16]
	ldr	w8, [x8]
	subs	w8, w8, #0
	cset	w8, gt
	tbnz	w8, #0, LBB69_2
	b	LBB69_1
LBB69_1:
	adrp	x0, l___func__._ZN6tensorIfLi2ELi1ELi1ELi1EE5sqrt_Ev@PAGE
	add	x0, x0, l___func__._ZN6tensorIfLi2ELi1ELi1ELi1EE5sqrt_Ev@PAGEOFF
	adrp	x1, l_.str.29@PAGE
	add	x1, x1, l_.str.29@PAGEOFF
	mov	w2, #272
	adrp	x3, l_.str.119@PAGE
	add	x3, x3, l_.str.119@PAGEOFF
	bl	___assert_rtn
LBB69_2:
	b	LBB69_3
LBB69_3:
	stur	wzr, [x29, #-20]
	b	LBB69_4
LBB69_4:                                ; =>This Loop Header: Depth=1
                                        ;     Child Loop BB69_6 Depth 2
                                        ;       Child Loop BB69_8 Depth 3
                                        ;         Child Loop BB69_10 Depth 4
	ldr	x9, [sp, #8]                    ; 8-byte Folded Reload
	ldur	w8, [x29, #-20]
	ldr	w9, [x9]
	subs	w8, w8, w9
	cset	w8, ge
	tbnz	w8, #0, LBB69_19
	b	LBB69_5
LBB69_5:                                ;   in Loop: Header=BB69_4 Depth=1
	str	wzr, [sp, #24]
	b	LBB69_6
LBB69_6:                                ;   Parent Loop BB69_4 Depth=1
                                        ; =>  This Loop Header: Depth=2
                                        ;       Child Loop BB69_8 Depth 3
                                        ;         Child Loop BB69_10 Depth 4
	ldr	w8, [sp, #24]
	subs	w8, w8, #1
	cset	w8, ge
	tbnz	w8, #0, LBB69_17
	b	LBB69_7
LBB69_7:                                ;   in Loop: Header=BB69_6 Depth=2
	str	wzr, [sp, #20]
	b	LBB69_8
LBB69_8:                                ;   Parent Loop BB69_4 Depth=1
                                        ;     Parent Loop BB69_6 Depth=2
                                        ; =>    This Loop Header: Depth=3
                                        ;         Child Loop BB69_10 Depth 4
	ldr	w8, [sp, #20]
	subs	w8, w8, #1
	cset	w8, ge
	tbnz	w8, #0, LBB69_15
	b	LBB69_9
LBB69_9:                                ;   in Loop: Header=BB69_8 Depth=3
	str	wzr, [sp, #16]
	b	LBB69_10
LBB69_10:                               ;   Parent Loop BB69_4 Depth=1
                                        ;     Parent Loop BB69_6 Depth=2
                                        ;       Parent Loop BB69_8 Depth=3
                                        ; =>      This Inner Loop Header: Depth=4
	ldr	w8, [sp, #16]
	subs	w8, w8, #1
	cset	w8, ge
	tbnz	w8, #0, LBB69_13
	b	LBB69_11
LBB69_11:                               ;   in Loop: Header=BB69_10 Depth=4
	ldur	x0, [x29, #-16]
	ldur	w1, [x29, #-20]
	ldr	w2, [sp, #24]
	ldr	w3, [sp, #20]
	ldr	w4, [sp, #16]
	bl	__ZN6tensorIfLi2ELi1ELi1ELi1EEclEiiii
	ldr	s0, [x0]
	bl	__Z4sqrtB6v15007f
	str	s0, [sp, #4]                    ; 4-byte Folded Spill
	ldur	x0, [x29, #-16]
	ldur	w1, [x29, #-20]
	ldr	w2, [sp, #24]
	ldr	w3, [sp, #20]
	ldr	w4, [sp, #16]
	bl	__ZN6tensorIfLi2ELi1ELi1ELi1EEclEiiii
	ldr	s0, [sp, #4]                    ; 4-byte Folded Reload
	str	s0, [x0]
	b	LBB69_12
LBB69_12:                               ;   in Loop: Header=BB69_10 Depth=4
	ldr	w8, [sp, #16]
	add	w8, w8, #1
	str	w8, [sp, #16]
	b	LBB69_10
LBB69_13:                               ;   in Loop: Header=BB69_8 Depth=3
	b	LBB69_14
LBB69_14:                               ;   in Loop: Header=BB69_8 Depth=3
	ldr	w8, [sp, #20]
	add	w8, w8, #1
	str	w8, [sp, #20]
	b	LBB69_8
LBB69_15:                               ;   in Loop: Header=BB69_6 Depth=2
	b	LBB69_16
LBB69_16:                               ;   in Loop: Header=BB69_6 Depth=2
	ldr	w8, [sp, #24]
	add	w8, w8, #1
	str	w8, [sp, #24]
	b	LBB69_6
LBB69_17:                               ;   in Loop: Header=BB69_4 Depth=1
	b	LBB69_18
LBB69_18:                               ;   in Loop: Header=BB69_4 Depth=1
	ldur	w8, [x29, #-20]
	add	w8, w8, #1
	stur	w8, [x29, #-20]
	b	LBB69_4
LBB69_19:
	ldur	x0, [x29, #-16]
	.cfi_def_cfa wsp, 64
	ldp	x29, x30, [sp, #48]             ; 16-byte Folded Reload
	add	sp, sp, #64
	.cfi_def_cfa_offset 0
	.cfi_restore w30
	.cfi_restore w29
	ret
	.cfi_endproc
                                        ; -- End function
	.globl	__ZN6tensorIfLi2ELi1ELi1ELi1EE4div_ERS0_ ; -- Begin function _ZN6tensorIfLi2ELi1ELi1ELi1EE4div_ERS0_
	.weak_definition	__ZN6tensorIfLi2ELi1ELi1ELi1EE4div_ERS0_
	.p2align	2
__ZN6tensorIfLi2ELi1ELi1ELi1EE4div_ERS0_: ; @_ZN6tensorIfLi2ELi1ELi1ELi1EE4div_ERS0_
	.cfi_startproc
; %bb.0:
	sub	sp, sp, #80
	.cfi_def_cfa_offset 80
	stp	x29, x30, [sp, #64]             ; 16-byte Folded Spill
	add	x29, sp, #64
	.cfi_def_cfa w29, 16
	.cfi_offset w30, -8
	.cfi_offset w29, -16
	stur	x0, [x29, #-8]
	stur	x1, [x29, #-16]
	ldur	x8, [x29, #-8]
	str	x8, [sp, #16]                   ; 8-byte Folded Spill
	stur	x8, [x29, #-24]
	ldur	x8, [x29, #-24]
	ldr	w8, [x8]
	ldur	x9, [x29, #-16]
	ldr	w9, [x9]
	subs	w8, w8, w9
	cset	w8, eq
	tbnz	w8, #0, LBB70_2
	b	LBB70_1
LBB70_1:
	adrp	x0, l___func__._ZN6tensorIfLi2ELi1ELi1ELi1EE4div_ERS0_@PAGE
	add	x0, x0, l___func__._ZN6tensorIfLi2ELi1ELi1ELi1EE4div_ERS0_@PAGEOFF
	adrp	x1, l_.str.29@PAGE
	add	x1, x1, l_.str.29@PAGEOFF
	mov	w2, #254
	adrp	x3, l_.str.37@PAGE
	add	x3, x3, l_.str.37@PAGEOFF
	bl	___assert_rtn
LBB70_2:
	b	LBB70_3
LBB70_3:
	stur	wzr, [x29, #-28]
	b	LBB70_4
LBB70_4:                                ; =>This Loop Header: Depth=1
                                        ;     Child Loop BB70_6 Depth 2
                                        ;       Child Loop BB70_8 Depth 3
                                        ;         Child Loop BB70_10 Depth 4
	ldr	x9, [sp, #16]                   ; 8-byte Folded Reload
	ldur	w8, [x29, #-28]
	ldr	w9, [x9]
	subs	w8, w8, w9
	cset	w8, ge
	tbnz	w8, #0, LBB70_19
	b	LBB70_5
LBB70_5:                                ;   in Loop: Header=BB70_4 Depth=1
	str	wzr, [sp, #32]
	b	LBB70_6
LBB70_6:                                ;   Parent Loop BB70_4 Depth=1
                                        ; =>  This Loop Header: Depth=2
                                        ;       Child Loop BB70_8 Depth 3
                                        ;         Child Loop BB70_10 Depth 4
	ldr	w8, [sp, #32]
	subs	w8, w8, #1
	cset	w8, ge
	tbnz	w8, #0, LBB70_17
	b	LBB70_7
LBB70_7:                                ;   in Loop: Header=BB70_6 Depth=2
	str	wzr, [sp, #28]
	b	LBB70_8
LBB70_8:                                ;   Parent Loop BB70_4 Depth=1
                                        ;     Parent Loop BB70_6 Depth=2
                                        ; =>    This Loop Header: Depth=3
                                        ;         Child Loop BB70_10 Depth 4
	ldr	w8, [sp, #28]
	subs	w8, w8, #1
	cset	w8, ge
	tbnz	w8, #0, LBB70_15
	b	LBB70_9
LBB70_9:                                ;   in Loop: Header=BB70_8 Depth=3
	str	wzr, [sp, #24]
	b	LBB70_10
LBB70_10:                               ;   Parent Loop BB70_4 Depth=1
                                        ;     Parent Loop BB70_6 Depth=2
                                        ;       Parent Loop BB70_8 Depth=3
                                        ; =>      This Inner Loop Header: Depth=4
	ldr	w8, [sp, #24]
	subs	w8, w8, #1
	cset	w8, ge
	tbnz	w8, #0, LBB70_13
	b	LBB70_11
LBB70_11:                               ;   in Loop: Header=BB70_10 Depth=4
	ldur	x0, [x29, #-16]
	ldur	w1, [x29, #-28]
	ldr	w2, [sp, #32]
	ldr	w3, [sp, #28]
	ldr	w4, [sp, #24]
	bl	__ZN6tensorIfLi2ELi1ELi1ELi1EEclEiiii
	ldr	s0, [x0]
	str	s0, [sp, #12]                   ; 4-byte Folded Spill
	ldur	x0, [x29, #-24]
	ldur	w1, [x29, #-28]
	ldr	w2, [sp, #32]
	ldr	w3, [sp, #28]
	ldr	w4, [sp, #24]
	bl	__ZN6tensorIfLi2ELi1ELi1ELi1EEclEiiii
	ldr	s1, [sp, #12]                   ; 4-byte Folded Reload
	ldr	s0, [x0]
	fdiv	s0, s0, s1
	str	s0, [x0]
	b	LBB70_12
LBB70_12:                               ;   in Loop: Header=BB70_10 Depth=4
	ldr	w8, [sp, #24]
	add	w8, w8, #1
	str	w8, [sp, #24]
	b	LBB70_10
LBB70_13:                               ;   in Loop: Header=BB70_8 Depth=3
	b	LBB70_14
LBB70_14:                               ;   in Loop: Header=BB70_8 Depth=3
	ldr	w8, [sp, #28]
	add	w8, w8, #1
	str	w8, [sp, #28]
	b	LBB70_8
LBB70_15:                               ;   in Loop: Header=BB70_6 Depth=2
	b	LBB70_16
LBB70_16:                               ;   in Loop: Header=BB70_6 Depth=2
	ldr	w8, [sp, #32]
	add	w8, w8, #1
	str	w8, [sp, #32]
	b	LBB70_6
LBB70_17:                               ;   in Loop: Header=BB70_4 Depth=1
	b	LBB70_18
LBB70_18:                               ;   in Loop: Header=BB70_4 Depth=1
	ldur	w8, [x29, #-28]
	add	w8, w8, #1
	stur	w8, [x29, #-28]
	b	LBB70_4
LBB70_19:
	ldur	x0, [x29, #-24]
	.cfi_def_cfa wsp, 80
	ldp	x29, x30, [sp, #64]             ; 16-byte Folded Reload
	add	sp, sp, #80
	.cfi_def_cfa_offset 0
	.cfi_restore w30
	.cfi_restore w29
	ret
	.cfi_endproc
                                        ; -- End function
	.globl	__ZN6tensorIfLi2ELi1ELi1ELi1EE4mul_ERS0_ ; -- Begin function _ZN6tensorIfLi2ELi1ELi1ELi1EE4mul_ERS0_
	.weak_definition	__ZN6tensorIfLi2ELi1ELi1ELi1EE4mul_ERS0_
	.p2align	2
__ZN6tensorIfLi2ELi1ELi1ELi1EE4mul_ERS0_: ; @_ZN6tensorIfLi2ELi1ELi1ELi1EE4mul_ERS0_
	.cfi_startproc
; %bb.0:
	sub	sp, sp, #80
	.cfi_def_cfa_offset 80
	stp	x29, x30, [sp, #64]             ; 16-byte Folded Spill
	add	x29, sp, #64
	.cfi_def_cfa w29, 16
	.cfi_offset w30, -8
	.cfi_offset w29, -16
	stur	x0, [x29, #-8]
	stur	x1, [x29, #-16]
	ldur	x8, [x29, #-8]
	str	x8, [sp, #16]                   ; 8-byte Folded Spill
	stur	x8, [x29, #-24]
	ldur	x8, [x29, #-24]
	ldr	w8, [x8]
	ldur	x9, [x29, #-16]
	ldr	w9, [x9]
	subs	w8, w8, w9
	cset	w8, eq
	tbnz	w8, #0, LBB71_2
	b	LBB71_1
LBB71_1:
	adrp	x0, l___func__._ZN6tensorIfLi2ELi1ELi1ELi1EE4mul_Ef@PAGE
	add	x0, x0, l___func__._ZN6tensorIfLi2ELi1ELi1ELi1EE4mul_Ef@PAGEOFF
	adrp	x1, l_.str.29@PAGE
	add	x1, x1, l_.str.29@PAGEOFF
	mov	w2, #236
	adrp	x3, l_.str.37@PAGE
	add	x3, x3, l_.str.37@PAGEOFF
	bl	___assert_rtn
LBB71_2:
	b	LBB71_3
LBB71_3:
	stur	wzr, [x29, #-28]
	b	LBB71_4
LBB71_4:                                ; =>This Loop Header: Depth=1
                                        ;     Child Loop BB71_6 Depth 2
                                        ;       Child Loop BB71_8 Depth 3
                                        ;         Child Loop BB71_10 Depth 4
	ldr	x9, [sp, #16]                   ; 8-byte Folded Reload
	ldur	w8, [x29, #-28]
	ldr	w9, [x9]
	subs	w8, w8, w9
	cset	w8, ge
	tbnz	w8, #0, LBB71_19
	b	LBB71_5
LBB71_5:                                ;   in Loop: Header=BB71_4 Depth=1
	str	wzr, [sp, #32]
	b	LBB71_6
LBB71_6:                                ;   Parent Loop BB71_4 Depth=1
                                        ; =>  This Loop Header: Depth=2
                                        ;       Child Loop BB71_8 Depth 3
                                        ;         Child Loop BB71_10 Depth 4
	ldr	w8, [sp, #32]
	subs	w8, w8, #1
	cset	w8, ge
	tbnz	w8, #0, LBB71_17
	b	LBB71_7
LBB71_7:                                ;   in Loop: Header=BB71_6 Depth=2
	str	wzr, [sp, #28]
	b	LBB71_8
LBB71_8:                                ;   Parent Loop BB71_4 Depth=1
                                        ;     Parent Loop BB71_6 Depth=2
                                        ; =>    This Loop Header: Depth=3
                                        ;         Child Loop BB71_10 Depth 4
	ldr	w8, [sp, #28]
	subs	w8, w8, #1
	cset	w8, ge
	tbnz	w8, #0, LBB71_15
	b	LBB71_9
LBB71_9:                                ;   in Loop: Header=BB71_8 Depth=3
	str	wzr, [sp, #24]
	b	LBB71_10
LBB71_10:                               ;   Parent Loop BB71_4 Depth=1
                                        ;     Parent Loop BB71_6 Depth=2
                                        ;       Parent Loop BB71_8 Depth=3
                                        ; =>      This Inner Loop Header: Depth=4
	ldr	w8, [sp, #24]
	subs	w8, w8, #1
	cset	w8, ge
	tbnz	w8, #0, LBB71_13
	b	LBB71_11
LBB71_11:                               ;   in Loop: Header=BB71_10 Depth=4
	ldur	x0, [x29, #-16]
	ldur	w1, [x29, #-28]
	ldr	w2, [sp, #32]
	ldr	w3, [sp, #28]
	ldr	w4, [sp, #24]
	bl	__ZN6tensorIfLi2ELi1ELi1ELi1EEclEiiii
	ldr	s0, [x0]
	str	s0, [sp, #12]                   ; 4-byte Folded Spill
	ldur	x0, [x29, #-24]
	ldur	w1, [x29, #-28]
	ldr	w2, [sp, #32]
	ldr	w3, [sp, #28]
	ldr	w4, [sp, #24]
	bl	__ZN6tensorIfLi2ELi1ELi1ELi1EEclEiiii
	ldr	s1, [sp, #12]                   ; 4-byte Folded Reload
	ldr	s0, [x0]
	fmul	s0, s0, s1
	str	s0, [x0]
	b	LBB71_12
LBB71_12:                               ;   in Loop: Header=BB71_10 Depth=4
	ldr	w8, [sp, #24]
	add	w8, w8, #1
	str	w8, [sp, #24]
	b	LBB71_10
LBB71_13:                               ;   in Loop: Header=BB71_8 Depth=3
	b	LBB71_14
LBB71_14:                               ;   in Loop: Header=BB71_8 Depth=3
	ldr	w8, [sp, #28]
	add	w8, w8, #1
	str	w8, [sp, #28]
	b	LBB71_8
LBB71_15:                               ;   in Loop: Header=BB71_6 Depth=2
	b	LBB71_16
LBB71_16:                               ;   in Loop: Header=BB71_6 Depth=2
	ldr	w8, [sp, #32]
	add	w8, w8, #1
	str	w8, [sp, #32]
	b	LBB71_6
LBB71_17:                               ;   in Loop: Header=BB71_4 Depth=1
	b	LBB71_18
LBB71_18:                               ;   in Loop: Header=BB71_4 Depth=1
	ldur	w8, [x29, #-28]
	add	w8, w8, #1
	stur	w8, [x29, #-28]
	b	LBB71_4
LBB71_19:
	ldur	x0, [x29, #-24]
	.cfi_def_cfa wsp, 80
	ldp	x29, x30, [sp, #64]             ; 16-byte Folded Reload
	add	sp, sp, #80
	.cfi_def_cfa_offset 0
	.cfi_restore w30
	.cfi_restore w29
	ret
	.cfi_endproc
                                        ; -- End function
	.globl	__ZN6tensorIfLi2ELi1ELi1ELi1EE4add_EfRS0_ ; -- Begin function _ZN6tensorIfLi2ELi1ELi1ELi1EE4add_EfRS0_
	.weak_definition	__ZN6tensorIfLi2ELi1ELi1ELi1EE4add_EfRS0_
	.p2align	2
__ZN6tensorIfLi2ELi1ELi1ELi1EE4add_EfRS0_: ; @_ZN6tensorIfLi2ELi1ELi1ELi1EE4add_EfRS0_
	.cfi_startproc
; %bb.0:
	sub	sp, sp, #80
	.cfi_def_cfa_offset 80
	stp	x29, x30, [sp, #64]             ; 16-byte Folded Spill
	add	x29, sp, #64
	.cfi_def_cfa w29, 16
	.cfi_offset w30, -8
	.cfi_offset w29, -16
	stur	x0, [x29, #-8]
	stur	s0, [x29, #-12]
	stur	x1, [x29, #-24]
	ldur	x8, [x29, #-8]
	str	x8, [sp, #8]                    ; 8-byte Folded Spill
	str	x8, [sp, #32]
	ldr	x8, [sp, #32]
	ldr	w8, [x8]
	ldur	x9, [x29, #-24]
	ldr	w9, [x9]
	subs	w8, w8, w9
	cset	w8, eq
	tbnz	w8, #0, LBB72_2
	b	LBB72_1
LBB72_1:
	adrp	x0, l___func__._ZN6tensorIfLi2ELi1ELi1ELi1EE4add_EfRS0_@PAGE
	add	x0, x0, l___func__._ZN6tensorIfLi2ELi1ELi1ELi1EE4add_EfRS0_@PAGEOFF
	adrp	x1, l_.str.29@PAGE
	add	x1, x1, l_.str.29@PAGEOFF
	mov	w2, #200
	adrp	x3, l_.str.37@PAGE
	add	x3, x3, l_.str.37@PAGEOFF
	bl	___assert_rtn
LBB72_2:
	b	LBB72_3
LBB72_3:
	str	wzr, [sp, #28]
	b	LBB72_4
LBB72_4:                                ; =>This Loop Header: Depth=1
                                        ;     Child Loop BB72_6 Depth 2
                                        ;       Child Loop BB72_8 Depth 3
                                        ;         Child Loop BB72_10 Depth 4
	ldr	x9, [sp, #8]                    ; 8-byte Folded Reload
	ldr	w8, [sp, #28]
	ldr	w9, [x9]
	subs	w8, w8, w9
	cset	w8, ge
	tbnz	w8, #0, LBB72_19
	b	LBB72_5
LBB72_5:                                ;   in Loop: Header=BB72_4 Depth=1
	str	wzr, [sp, #24]
	b	LBB72_6
LBB72_6:                                ;   Parent Loop BB72_4 Depth=1
                                        ; =>  This Loop Header: Depth=2
                                        ;       Child Loop BB72_8 Depth 3
                                        ;         Child Loop BB72_10 Depth 4
	ldr	w8, [sp, #24]
	subs	w8, w8, #1
	cset	w8, ge
	tbnz	w8, #0, LBB72_17
	b	LBB72_7
LBB72_7:                                ;   in Loop: Header=BB72_6 Depth=2
	str	wzr, [sp, #20]
	b	LBB72_8
LBB72_8:                                ;   Parent Loop BB72_4 Depth=1
                                        ;     Parent Loop BB72_6 Depth=2
                                        ; =>    This Loop Header: Depth=3
                                        ;         Child Loop BB72_10 Depth 4
	ldr	w8, [sp, #20]
	subs	w8, w8, #1
	cset	w8, ge
	tbnz	w8, #0, LBB72_15
	b	LBB72_9
LBB72_9:                                ;   in Loop: Header=BB72_8 Depth=3
	str	wzr, [sp, #16]
	b	LBB72_10
LBB72_10:                               ;   Parent Loop BB72_4 Depth=1
                                        ;     Parent Loop BB72_6 Depth=2
                                        ;       Parent Loop BB72_8 Depth=3
                                        ; =>      This Inner Loop Header: Depth=4
	ldr	w8, [sp, #16]
	subs	w8, w8, #1
	cset	w8, ge
	tbnz	w8, #0, LBB72_13
	b	LBB72_11
LBB72_11:                               ;   in Loop: Header=BB72_10 Depth=4
	ldur	s0, [x29, #-12]
	str	s0, [sp, #4]                    ; 4-byte Folded Spill
	ldur	x0, [x29, #-24]
	ldr	w1, [sp, #28]
	ldr	w2, [sp, #24]
	ldr	w3, [sp, #20]
	ldr	w4, [sp, #16]
	bl	__ZN6tensorIfLi2ELi1ELi1ELi1EEclEiiii
	ldr	s0, [x0]
	str	s0, [sp]                        ; 4-byte Folded Spill
	ldr	x0, [sp, #32]
	ldr	w1, [sp, #28]
	ldr	w2, [sp, #24]
	ldr	w3, [sp, #20]
	ldr	w4, [sp, #16]
	bl	__ZN6tensorIfLi2ELi1ELi1ELi1EEclEiiii
	ldr	s1, [sp]                        ; 4-byte Folded Reload
	ldr	s0, [sp, #4]                    ; 4-byte Folded Reload
	ldr	s2, [x0]
	fmadd	s0, s0, s1, s2
	str	s0, [x0]
	b	LBB72_12
LBB72_12:                               ;   in Loop: Header=BB72_10 Depth=4
	ldr	w8, [sp, #16]
	add	w8, w8, #1
	str	w8, [sp, #16]
	b	LBB72_10
LBB72_13:                               ;   in Loop: Header=BB72_8 Depth=3
	b	LBB72_14
LBB72_14:                               ;   in Loop: Header=BB72_8 Depth=3
	ldr	w8, [sp, #20]
	add	w8, w8, #1
	str	w8, [sp, #20]
	b	LBB72_8
LBB72_15:                               ;   in Loop: Header=BB72_6 Depth=2
	b	LBB72_16
LBB72_16:                               ;   in Loop: Header=BB72_6 Depth=2
	ldr	w8, [sp, #24]
	add	w8, w8, #1
	str	w8, [sp, #24]
	b	LBB72_6
LBB72_17:                               ;   in Loop: Header=BB72_4 Depth=1
	b	LBB72_18
LBB72_18:                               ;   in Loop: Header=BB72_4 Depth=1
	ldr	w8, [sp, #28]
	add	w8, w8, #1
	str	w8, [sp, #28]
	b	LBB72_4
LBB72_19:
	ldr	x0, [sp, #32]
	.cfi_def_cfa wsp, 80
	ldp	x29, x30, [sp, #64]             ; 16-byte Folded Reload
	add	sp, sp, #80
	.cfi_def_cfa_offset 0
	.cfi_restore w30
	.cfi_restore w29
	ret
	.cfi_endproc
                                        ; -- End function
	.private_extern	__Z4sqrtB6v15007f       ; -- Begin function _Z4sqrtB6v15007f
	.globl	__Z4sqrtB6v15007f
	.weak_definition	__Z4sqrtB6v15007f
	.p2align	2
__Z4sqrtB6v15007f:                      ; @_Z4sqrtB6v15007f
	.cfi_startproc
; %bb.0:
	sub	sp, sp, #16
	.cfi_def_cfa_offset 16
	str	s0, [sp, #12]
	ldr	s0, [sp, #12]
	fsqrt	s0, s0
	add	sp, sp, #16
	.cfi_def_cfa_offset 0
	ret
	.cfi_endproc
                                        ; -- End function
	.globl	__Z16convolution_mainiPPc       ; -- Begin function _Z16convolution_mainiPPc
	.p2align	2
__Z16convolution_mainiPPc:              ; @_Z16convolution_mainiPPc
	.cfi_startproc
; %bb.0:
	stp	x28, x27, [sp, #-32]!           ; 16-byte Folded Spill
	.cfi_def_cfa_offset 32
	stp	x29, x30, [sp, #16]             ; 16-byte Folded Spill
	add	x29, sp, #16
	.cfi_def_cfa w29, 16
	.cfi_offset w30, -8
	.cfi_offset w29, -16
	.cfi_offset w27, -24
	.cfi_offset w28, -32
	sub	sp, sp, #640
	add	x8, sp, #184
	str	x8, [sp, #40]                   ; 8-byte Folded Spill
	str	w0, [x8, #452]
	str	x1, [x8, #440]
	ldr	w0, [x8, #452]
	ldr	x1, [x8, #440]
	sub	x8, x29, #152
	bl	__ZL10parse_argsiPPc
	ldr	x8, [sp, #40]                   ; 8-byte Folded Reload
	ldr	w8, [x8, #436]
	subs	w8, w8, #0
	cset	w8, ne
	tbnz	w8, #0, LBB74_2
	b	LBB74_1
LBB74_1:
	ldr	x8, [sp, #40]                   ; 8-byte Folded Reload
	ldr	w8, [x8, #432]
	subs	w8, w8, #0
	cset	w8, eq
	tbnz	w8, #0, LBB74_3
	b	LBB74_2
LBB74_2:
	ldr	x8, [sp, #40]                   ; 8-byte Folded Reload
	ldr	x8, [x8, #440]
	ldr	x0, [x8]
	bl	__ZL5usagePKc
	b	LBB74_3
LBB74_3:
	ldr	x8, [sp, #40]                   ; 8-byte Folded Reload
	mov	w0, #64
	str	w0, [x8, #316]
	sub	x9, x29, #152
	str	x9, [sp, #16]                   ; 8-byte Folded Spill
	ldr	w1, [x8, #352]
	bl	__ZL5min_iii
	ldr	x9, [sp, #40]                   ; 8-byte Folded Reload
	str	w0, [x9, #312]
	mov	w8, #1
	str	w8, [x9, #308]
	mov	w8, #28
	str	w8, [x9, #304]
	str	w8, [x9, #300]
	mov	w8, #3
	str	w8, [x9, #296]
	mov	w8, #32
	str	w8, [x9, #292]
	ldr	x8, [x9, #344]
                                        ; kill: def $w8 killed $w8 killed $x8
	str	w8, [x9, #288]
	add	x0, sp, #336
	str	x0, [sp, #24]                   ; 8-byte Folded Spill
	bl	__ZN6loggerC1Ev
	ldr	x1, [sp, #16]                   ; 8-byte Folded Reload
	add	x0, sp, #216
	str	x0, [sp, #32]                   ; 8-byte Folded Spill
	mov	x2, #120
	bl	_memcpy
	ldr	x0, [sp, #24]                   ; 8-byte Folded Reload
	ldr	x1, [sp, #32]                   ; 8-byte Folded Reload
	bl	__ZN6logger9start_logE11cmdline_opt
	ldr	x8, [sp, #40]                   ; 8-byte Folded Reload
	ldr	x1, [x8, #376]
	add	x0, sp, #208
	bl	__ZN9rnd_gen_t4seedEy
	ldr	x8, [sp, #40]                   ; 8-byte Folded Reload
	movi	d0, #0000000000000000
	str	d0, [x8, #16]
	str	d0, [x8, #8]
	str	wzr, [x8]
	b	LBB74_4
LBB74_4:                                ; =>This Inner Loop Header: Depth=1
	ldr	x9, [sp, #40]                   ; 8-byte Folded Reload
	ldr	w8, [x9]
	ldr	w9, [x9, #288]
	subs	w8, w8, w9
	cset	w8, ge
	tbnz	w8, #0, LBB74_7
	b	LBB74_5
LBB74_5:                                ;   in Loop: Header=BB74_4 Depth=1
	ldr	x8, [sp, #40]                   ; 8-byte Folded Reload
	ldr	w9, [x8]
                                        ; implicit-def: $x8
	mov	x8, x9
	mov	x9, sp
	str	x8, [x9]
	adrp	x0, l_.str.121@PAGE
	add	x0, x0, l_.str.121@PAGEOFF
	bl	_printf
	add	x0, sp, #56
	str	x0, [sp, #8]                    ; 8-byte Folded Spill
	sub	x1, x29, #152
	mov	x2, #120
	bl	_memcpy
	ldr	x0, [sp, #8]                    ; 8-byte Folded Reload
	ldr	x8, [sp, #40]                   ; 8-byte Folded Reload
	ldr	w3, [x8, #312]
	add	x1, sp, #336
	add	x2, sp, #208
	bl	__ZL10grad_checkI13Convolution2DILi64ELi1ELi28ELi28ELi3ELi32EE6tensorIfLi64ELi1ELi28ELi28EES2_IfLi64ELi32ELi26ELi26EE16Convolution2DCfgEd11cmdline_optP6loggerR9rnd_gen_tT2_i
	ldr	x8, [sp, #40]                   ; 8-byte Folded Reload
	str	d0, [sp, #176]
	ldr	d0, [x8, #16]
	fcvt	s0, d0
	ldr	d1, [sp, #176]
	fcvt	s1, d1
	bl	__ZL5max_rff
	ldr	x8, [sp, #40]                   ; 8-byte Folded Reload
	fcvt	d0, s0
	str	d0, [x8, #16]
	ldr	d1, [sp, #176]
	ldr	d0, [x8, #8]
	fadd	d0, d0, d1
	str	d0, [x8, #8]
	b	LBB74_6
LBB74_6:                                ;   in Loop: Header=BB74_4 Depth=1
	ldr	x9, [sp, #40]                   ; 8-byte Folded Reload
	ldr	w8, [x9]
	add	w8, w8, #1
	str	w8, [x9]
	b	LBB74_4
LBB74_7:
	ldr	x8, [sp, #40]                   ; 8-byte Folded Reload
	ldr	x8, [x8, #16]
	mov	x9, sp
	str	x8, [x9]
	adrp	x0, l_.str.122@PAGE
	add	x0, x0, l_.str.122@PAGEOFF
	bl	_printf
	ldr	x8, [sp, #40]                   ; 8-byte Folded Reload
	ldr	d0, [x8, #8]
	ldr	s2, [x8, #288]
                                        ; implicit-def: $d1
	fmov	s1, s2
	sshll.2d	v1, v1, #0
                                        ; kill: def $d1 killed $d1 killed $q1
	scvtf	d1, d1
	fdiv	d0, d0, d1
	mov	x8, sp
	str	d0, [x8]
	adrp	x0, l_.str.123@PAGE
	add	x0, x0, l_.str.123@PAGEOFF
	bl	_printf
	add	x0, sp, #336
	bl	__ZN6logger7end_logEv
	mov	w0, #0
	add	sp, sp, #640
	.cfi_def_cfa wsp, 32
	ldp	x29, x30, [sp, #16]             ; 16-byte Folded Reload
	ldp	x28, x27, [sp], #32             ; 16-byte Folded Reload
	.cfi_def_cfa_offset 0
	.cfi_restore w30
	.cfi_restore w29
	.cfi_restore w27
	.cfi_restore w28
	ret
	.cfi_endproc
                                        ; -- End function
	.p2align	2                               ; -- Begin function _ZL10grad_checkI13Convolution2DILi64ELi1ELi28ELi28ELi3ELi32EE6tensorIfLi64ELi1ELi28ELi28EES2_IfLi64ELi32ELi26ELi26EE16Convolution2DCfgEd11cmdline_optP6loggerR9rnd_gen_tT2_i
__ZL10grad_checkI13Convolution2DILi64ELi1ELi28ELi28ELi3ELi32EE6tensorIfLi64ELi1ELi28ELi28EES2_IfLi64ELi32ELi26ELi26EE16Convolution2DCfgEd11cmdline_optP6loggerR9rnd_gen_tT2_i: ; @_ZL10grad_checkI13Convolution2DILi64ELi1ELi28ELi28ELi3ELi32EE6tensorIfLi64ELi1ELi28ELi28EES2_IfLi64ELi32ELi26ELi26EE16Convolution2DCfgEd11cmdline_optP6loggerR9rnd_gen_tT2_i
Lfunc_begin0:
	.cfi_startproc
	.cfi_personality 155, ___gxx_personality_v0
	.cfi_lsda 16, Lexception0
; %bb.0:
	stp	x28, x27, [sp, #-32]!           ; 16-byte Folded Spill
	.cfi_def_cfa_offset 32
	stp	x29, x30, [sp, #16]             ; 16-byte Folded Spill
	add	x29, sp, #16
	.cfi_def_cfa w29, 16
	.cfi_offset w30, -8
	.cfi_offset w29, -16
	.cfi_offset w27, -24
	.cfi_offset w28, -32
	.cfi_remember_state
	sub	sp, sp, #496
	str	x0, [sp, #144]                  ; 8-byte Folded Spill
	stur	x1, [x29, #-32]
	stur	x2, [x29, #-40]
	stur	w3, [x29, #-44]
	mov	x0, #44760
	movk	x0, #87, lsl #16
	str	x0, [sp, #152]                  ; 8-byte Folded Spill
	bl	__Znwm
	ldr	x1, [sp, #152]                  ; 8-byte Folded Reload
	str	x0, [sp, #160]                  ; 8-byte Folded Spill
	bl	_bzero
	ldr	x0, [sp, #160]                  ; 8-byte Folded Reload
Ltmp19:
	bl	__ZN13Convolution2DILi64ELi1ELi28ELi28ELi3ELi32EEC1Ev
Ltmp20:
	b	LBB75_1
LBB75_1:
	ldr	x1, [sp, #144]                  ; 8-byte Folded Reload
	ldr	x8, [sp, #160]                  ; 8-byte Folded Reload
	stur	x8, [x29, #-56]
	ldur	x8, [x29, #-56]
	str	x8, [sp, #56]                   ; 8-byte Folded Spill
	sub	x0, x29, #192
	str	x0, [sp, #64]                   ; 8-byte Folded Spill
	mov	x2, #120
	bl	_memcpy
	ldr	x0, [sp, #56]                   ; 8-byte Folded Reload
	ldr	x1, [sp, #64]                   ; 8-byte Folded Reload
	ldur	x2, [x29, #-32]
	ldur	x3, [x29, #-40]
	bl	__ZN13Convolution2DILi64ELi1ELi28ELi28ELi3ELi32EE4initE11cmdline_optP6loggerR9rnd_gen_t16Convolution2DCfg
	mov	x0, #4100
	movk	x0, #3, lsl #16
	str	x0, [sp, #104]                  ; 8-byte Folded Spill
	bl	__Znwm
	ldr	x1, [sp, #104]                  ; 8-byte Folded Reload
	str	x0, [sp, #72]                   ; 8-byte Folded Spill
	bl	_bzero
	ldr	x0, [sp, #72]                   ; 8-byte Folded Reload
	stur	x0, [x29, #-208]
	ldur	x0, [x29, #-208]
	ldur	w1, [x29, #-44]
	ldur	x2, [x29, #-40]
	fmov	s0, #-1.00000000
	str	s0, [sp, #96]                   ; 4-byte Folded Spill
	fmov	s1, #1.00000000
	str	s1, [sp, #100]                  ; 4-byte Folded Spill
	bl	__ZN6tensorIfLi64ELi1ELi28ELi28EE12init_uniformEiR9rnd_gen_tff
	mov	x0, #32772
	movk	x0, #84, lsl #16
	str	x0, [sp, #80]                   ; 8-byte Folded Spill
	bl	__Znwm
	ldr	x1, [sp, #80]                   ; 8-byte Folded Reload
	str	x0, [sp, #88]                   ; 8-byte Folded Spill
	bl	_bzero
	ldr	x0, [sp, #88]                   ; 8-byte Folded Reload
	ldr	s0, [sp, #96]                   ; 4-byte Folded Reload
	ldr	s1, [sp, #100]                  ; 4-byte Folded Reload
	stur	x0, [x29, #-216]
	ldur	x0, [x29, #-216]
	ldur	w1, [x29, #-44]
	ldur	x2, [x29, #-40]
	bl	__ZN6tensorIfLi64ELi32ELi26ELi26EE12init_uniformEiR9rnd_gen_tff
	ldr	x0, [sp, #104]                  ; 8-byte Folded Reload
	mov	w8, #4719
	movk	w8, #14979, lsl #16
	fmov	s0, w8
	stur	s0, [x29, #-220]
	bl	__Znwm
	ldr	x1, [sp, #104]                  ; 8-byte Folded Reload
	str	x0, [sp, #112]                  ; 8-byte Folded Spill
	bl	_bzero
	ldr	x0, [sp, #112]                  ; 8-byte Folded Reload
	stur	x0, [x29, #-232]
	ldur	x0, [x29, #-232]
	ldur	w1, [x29, #-44]
	ldur	x2, [x29, #-40]
	ldur	s0, [x29, #-220]
	fneg	s0, s0
	ldur	s1, [x29, #-220]
	bl	__ZN6tensorIfLi64ELi1ELi28ELi28EE12init_uniformEiR9rnd_gen_tff
	ldr	x8, [sp, #144]                  ; 8-byte Folded Reload
	ldur	x0, [x29, #-208]
	ldr	w1, [x8, #100]
	bl	__Z9make_copyI6tensorIfLi64ELi1ELi28ELi28EEEPT_S3_i
	ldr	x8, [sp, #144]                  ; 8-byte Folded Reload
	stur	x0, [x29, #-240]
	ldur	x0, [x29, #-208]
	ldr	w1, [x8, #100]
	bl	__Z9make_copyI6tensorIfLi64ELi1ELi28ELi28EEEPT_S3_i
	stur	x0, [x29, #-248]
	ldur	x0, [x29, #-240]
	ldur	x1, [x29, #-232]
	fmov	s0, #-0.50000000
	str	s0, [sp, #124]                  ; 4-byte Folded Spill
	bl	__ZN6tensorIfLi64ELi1ELi28ELi28EE4add_EfRS0_
	ldur	x0, [x29, #-248]
	ldur	x1, [x29, #-232]
	fmov	s0, #0.50000000
	str	s0, [sp, #128]                  ; 4-byte Folded Spill
	bl	__ZN6tensorIfLi64ELi1ELi28ELi28EE4add_EfRS0_
	ldr	x8, [sp, #144]                  ; 8-byte Folded Reload
	ldur	x0, [x29, #-56]
	ldr	w1, [x8, #100]
	bl	__Z9make_copyI13Convolution2DILi64ELi1ELi28ELi28ELi3ELi32EEEPT_S3_i
	ldr	x8, [sp, #144]                  ; 8-byte Folded Reload
	str	x0, [sp, #256]
	ldur	x0, [x29, #-56]
	ldr	w1, [x8, #100]
	bl	__Z9make_copyI13Convolution2DILi64ELi1ELi28ELi28ELi3ELi32EEEPT_S3_i
	str	x0, [sp, #248]
	ldr	x0, [sp, #256]
	ldur	x1, [x29, #-40]
	ldur	s0, [x29, #-220]
	fneg	s0, s0
	ldur	s1, [x29, #-220]
	bl	__ZN13Convolution2DILi64ELi1ELi28ELi28ELi3ELi32EE9rand_gradER9rnd_gen_tff
	ldr	x0, [sp, #248]
	ldr	x1, [sp, #256]
	bl	__ZN13Convolution2DILi64ELi1ELi28ELi28ELi3ELi32EE9copy_gradERS0_
	ldr	s0, [sp, #124]                  ; 4-byte Folded Reload
	ldr	x0, [sp, #256]
	bl	__ZN13Convolution2DILi64ELi1ELi28ELi28ELi3ELi32EE8add_gradEf
	ldr	s0, [sp, #128]                  ; 4-byte Folded Reload
	ldr	x0, [sp, #248]
	bl	__ZN13Convolution2DILi64ELi1ELi28ELi28ELi3ELi32EE8add_gradEf
	ldr	x8, [sp, #144]                  ; 8-byte Folded Reload
	ldur	x0, [x29, #-216]
	ldr	w1, [x8, #100]
	bl	__Z6to_devI6tensorIfLi64ELi32ELi26ELi26EEEvPT_i
	ldr	x8, [sp, #144]                  ; 8-byte Folded Reload
	ldur	x0, [x29, #-208]
	ldr	w1, [x8, #100]
	bl	__Z6to_devI6tensorIfLi64ELi1ELi28ELi28EEEvPT_i
	ldr	x8, [sp, #144]                  ; 8-byte Folded Reload
	ldur	x0, [x29, #-240]
	ldr	w1, [x8, #100]
	bl	__Z6to_devI6tensorIfLi64ELi1ELi28ELi28EEEvPT_i
	ldr	x8, [sp, #144]                  ; 8-byte Folded Reload
	ldur	x0, [x29, #-248]
	ldr	w1, [x8, #100]
	bl	__Z6to_devI6tensorIfLi64ELi1ELi28ELi28EEEvPT_i
	ldr	x8, [sp, #144]                  ; 8-byte Folded Reload
	ldur	x0, [x29, #-56]
	ldr	w1, [x8, #100]
	bl	__Z6to_devI13Convolution2DILi64ELi1ELi28ELi28ELi3ELi32EEEvPT_i
	ldr	x8, [sp, #144]                  ; 8-byte Folded Reload
	ldr	x0, [sp, #256]
	ldr	w1, [x8, #100]
	bl	__Z6to_devI13Convolution2DILi64ELi1ELi28ELi28ELi3ELi32EEEvPT_i
	ldr	x8, [sp, #144]                  ; 8-byte Folded Reload
	ldr	x0, [sp, #248]
	ldr	w1, [x8, #100]
	bl	__Z6to_devI13Convolution2DILi64ELi1ELi28ELi28ELi3ELi32EEEvPT_i
	ldur	x0, [x29, #-56]
	ldur	x1, [x29, #-208]
	mov	w2, #1
	str	w2, [sp, #132]                  ; 4-byte Folded Spill
	bl	__ZN13Convolution2DILi64ELi1ELi28ELi28ELi3ELi32EE7forwardER6tensorIfLi64ELi1ELi28ELi28EEi
	str	x0, [sp, #240]
	ldur	x0, [x29, #-56]
	ldur	x1, [x29, #-216]
	bl	__ZN13Convolution2DILi64ELi1ELi28ELi28ELi3ELi32EE8backwardER6tensorIfLi64ELi32ELi26ELi26EE
	ldr	w2, [sp, #132]                  ; 4-byte Folded Reload
	str	x0, [sp, #232]
	ldr	x0, [sp, #256]
	ldur	x1, [x29, #-240]
	bl	__ZN13Convolution2DILi64ELi1ELi28ELi28ELi3ELi32EE7forwardER6tensorIfLi64ELi1ELi28ELi28EEi
	ldr	w2, [sp, #132]                  ; 4-byte Folded Reload
	str	x0, [sp, #224]
	ldr	x0, [sp, #248]
	ldur	x1, [x29, #-248]
	bl	__ZN13Convolution2DILi64ELi1ELi28ELi28ELi3ELi32EE7forwardER6tensorIfLi64ELi1ELi28ELi28EEi
	ldr	x8, [sp, #144]                  ; 8-byte Folded Reload
	str	x0, [sp, #216]
	ldur	x0, [x29, #-56]
	ldr	w1, [x8, #100]
	bl	__Z7to_hostI13Convolution2DILi64ELi1ELi28ELi28ELi3ELi32EEEvPT_i
	ldr	x8, [sp, #144]                  ; 8-byte Folded Reload
	ldr	x0, [sp, #256]
	ldr	w1, [x8, #100]
	bl	__Z7to_hostI13Convolution2DILi64ELi1ELi28ELi28ELi3ELi32EEEvPT_i
	ldr	x8, [sp, #144]                  ; 8-byte Folded Reload
	ldr	x0, [sp, #248]
	ldr	w1, [x8, #100]
	bl	__Z7to_hostI13Convolution2DILi64ELi1ELi28ELi28ELi3ELi32EEEvPT_i
	ldur	x0, [x29, #-216]
	ldr	x1, [sp, #224]
	bl	__ZN6tensorIfLi64ELi32ELi26ELi26EE3dotERS0_
	str	d0, [sp, #208]
	ldur	x0, [x29, #-216]
	ldr	x1, [sp, #240]
	bl	__ZN6tensorIfLi64ELi32ELi26ELi26EE3dotERS0_
	str	d0, [sp, #200]
	ldur	x0, [x29, #-216]
	ldr	x1, [sp, #216]
	bl	__ZN6tensorIfLi64ELi32ELi26ELi26EE3dotERS0_
	str	d0, [sp, #192]
	ldr	x0, [sp, #232]
	ldur	x1, [x29, #-232]
	bl	__ZN6tensorIfLi64ELi1ELi28ELi28EE3dotERS0_
	str	d0, [sp, #184]
	ldur	x0, [x29, #-56]
	ldr	x1, [sp, #256]
	bl	__ZN13Convolution2DILi64ELi1ELi28ELi28ELi3ELi32EE13grad_dot_gradERS0_
	str	d0, [sp, #176]
	ldr	d0, [sp, #184]
	ldr	d1, [sp, #176]
	ldr	d2, [sp, #208]
	ldr	d3, [sp, #200]
	ldr	d4, [sp, #192]
	bl	__ZL10show_errorddddd
	ldr	x8, [sp, #144]                  ; 8-byte Folded Reload
	fcvt	d0, s0
	str	d0, [sp, #168]
	ldur	x0, [x29, #-56]
	ldr	w1, [x8, #100]
	bl	__Z7del_devI13Convolution2DILi64ELi1ELi28ELi28ELi3ELi32EEEvPT_i
	ldr	x8, [sp, #144]                  ; 8-byte Folded Reload
	ldr	x0, [sp, #256]
	ldr	w1, [x8, #100]
	bl	__Z7del_devI13Convolution2DILi64ELi1ELi28ELi28ELi3ELi32EEEvPT_i
	ldr	x8, [sp, #144]                  ; 8-byte Folded Reload
	ldr	x0, [sp, #248]
	ldr	w1, [x8, #100]
	bl	__Z7del_devI13Convolution2DILi64ELi1ELi28ELi28ELi3ELi32EEEvPT_i
	ldr	x8, [sp, #144]                  ; 8-byte Folded Reload
	ldur	x0, [x29, #-216]
	ldr	w1, [x8, #100]
	bl	__Z7del_devI6tensorIfLi64ELi32ELi26ELi26EEEvPT_i
	ldr	x8, [sp, #144]                  ; 8-byte Folded Reload
	ldur	x0, [x29, #-208]
	ldr	w1, [x8, #100]
	bl	__Z7del_devI6tensorIfLi64ELi1ELi28ELi28EEEvPT_i
	ldr	x8, [sp, #144]                  ; 8-byte Folded Reload
	ldur	x0, [x29, #-232]
	ldr	w1, [x8, #100]
	bl	__Z7del_devI6tensorIfLi64ELi1ELi28ELi28EEEvPT_i
	ldr	x8, [sp, #144]                  ; 8-byte Folded Reload
	ldur	x0, [x29, #-240]
	ldr	w1, [x8, #100]
	bl	__Z7del_devI6tensorIfLi64ELi1ELi28ELi28EEEvPT_i
	ldr	x8, [sp, #144]                  ; 8-byte Folded Reload
	ldur	x0, [x29, #-248]
	ldr	w1, [x8, #100]
	bl	__Z7del_devI6tensorIfLi64ELi1ELi28ELi28EEEvPT_i
	ldur	x8, [x29, #-56]
	str	x8, [sp, #136]                  ; 8-byte Folded Spill
	subs	x8, x8, #0
	cset	w8, eq
	tbnz	w8, #0, LBB75_3
	b	LBB75_2
LBB75_2:
	ldr	x0, [sp, #136]                  ; 8-byte Folded Reload
	bl	__ZdlPv
	b	LBB75_3
LBB75_3:
	ldr	x8, [sp, #256]
	str	x8, [sp, #48]                   ; 8-byte Folded Spill
	subs	x8, x8, #0
	cset	w8, eq
	tbnz	w8, #0, LBB75_5
	b	LBB75_4
LBB75_4:
	ldr	x0, [sp, #48]                   ; 8-byte Folded Reload
	bl	__ZdlPv
	b	LBB75_5
LBB75_5:
	ldr	x8, [sp, #248]
	str	x8, [sp, #40]                   ; 8-byte Folded Spill
	subs	x8, x8, #0
	cset	w8, eq
	tbnz	w8, #0, LBB75_7
	b	LBB75_6
LBB75_6:
	ldr	x0, [sp, #40]                   ; 8-byte Folded Reload
	bl	__ZdlPv
	b	LBB75_7
LBB75_7:
	ldur	x8, [x29, #-216]
	str	x8, [sp, #32]                   ; 8-byte Folded Spill
	subs	x8, x8, #0
	cset	w8, eq
	tbnz	w8, #0, LBB75_9
	b	LBB75_8
LBB75_8:
	ldr	x0, [sp, #32]                   ; 8-byte Folded Reload
	bl	__ZdlPv
	b	LBB75_9
LBB75_9:
	ldur	x8, [x29, #-208]
	str	x8, [sp, #24]                   ; 8-byte Folded Spill
	subs	x8, x8, #0
	cset	w8, eq
	tbnz	w8, #0, LBB75_11
	b	LBB75_10
LBB75_10:
	ldr	x0, [sp, #24]                   ; 8-byte Folded Reload
	bl	__ZdlPv
	b	LBB75_11
LBB75_11:
	ldur	x8, [x29, #-232]
	str	x8, [sp, #16]                   ; 8-byte Folded Spill
	subs	x8, x8, #0
	cset	w8, eq
	tbnz	w8, #0, LBB75_13
	b	LBB75_12
LBB75_12:
	ldr	x0, [sp, #16]                   ; 8-byte Folded Reload
	bl	__ZdlPv
	b	LBB75_13
LBB75_13:
	ldur	x8, [x29, #-240]
	str	x8, [sp, #8]                    ; 8-byte Folded Spill
	subs	x8, x8, #0
	cset	w8, eq
	tbnz	w8, #0, LBB75_15
	b	LBB75_14
LBB75_14:
	ldr	x0, [sp, #8]                    ; 8-byte Folded Reload
	bl	__ZdlPv
	b	LBB75_15
LBB75_15:
	ldur	x8, [x29, #-248]
	str	x8, [sp]                        ; 8-byte Folded Spill
	subs	x8, x8, #0
	cset	w8, eq
	tbnz	w8, #0, LBB75_17
	b	LBB75_16
LBB75_16:
	ldr	x0, [sp]                        ; 8-byte Folded Reload
	bl	__ZdlPv
	b	LBB75_17
LBB75_17:
	ldr	d0, [sp, #168]
	add	sp, sp, #496
	.cfi_def_cfa wsp, 32
	ldp	x29, x30, [sp, #16]             ; 16-byte Folded Reload
	ldp	x28, x27, [sp], #32             ; 16-byte Folded Reload
	.cfi_def_cfa_offset 0
	.cfi_restore w30
	.cfi_restore w29
	.cfi_restore w27
	.cfi_restore w28
	ret
LBB75_18:
	.cfi_restore_state
Ltmp21:
	mov	x9, x0
	ldr	x0, [sp, #160]                  ; 8-byte Folded Reload
	mov	x8, x1
	stur	x9, [x29, #-64]
	stur	w8, [x29, #-68]
	bl	__ZdlPv
	b	LBB75_19
LBB75_19:
	ldur	x0, [x29, #-64]
	bl	__Unwind_Resume
Lfunc_end0:
	.cfi_endproc
	.section	__TEXT,__gcc_except_tab
	.p2align	2
GCC_except_table75:
Lexception0:
	.byte	255                             ; @LPStart Encoding = omit
	.byte	255                             ; @TType Encoding = omit
	.byte	1                               ; Call site Encoding = uleb128
	.uleb128 Lcst_end0-Lcst_begin0
Lcst_begin0:
	.uleb128 Lfunc_begin0-Lfunc_begin0      ; >> Call Site 1 <<
	.uleb128 Ltmp19-Lfunc_begin0            ;   Call between Lfunc_begin0 and Ltmp19
	.byte	0                               ;     has no landing pad
	.byte	0                               ;   On action: cleanup
	.uleb128 Ltmp19-Lfunc_begin0            ; >> Call Site 2 <<
	.uleb128 Ltmp20-Ltmp19                  ;   Call between Ltmp19 and Ltmp20
	.uleb128 Ltmp21-Lfunc_begin0            ;     jumps to Ltmp21
	.byte	0                               ;   On action: cleanup
	.uleb128 Ltmp20-Lfunc_begin0            ; >> Call Site 3 <<
	.uleb128 Lfunc_end0-Ltmp20              ;   Call between Ltmp20 and Lfunc_end0
	.byte	0                               ;     has no landing pad
	.byte	0                               ;   On action: cleanup
Lcst_end0:
	.p2align	2
                                        ; -- End function
	.section	__TEXT,__text,regular,pure_instructions
	.globl	__ZN13Convolution2DILi64ELi1ELi28ELi28ELi3ELi32EEC1Ev ; -- Begin function _ZN13Convolution2DILi64ELi1ELi28ELi28ELi3ELi32EEC1Ev
	.weak_def_can_be_hidden	__ZN13Convolution2DILi64ELi1ELi28ELi28ELi3ELi32EEC1Ev
	.p2align	2
__ZN13Convolution2DILi64ELi1ELi28ELi28ELi3ELi32EEC1Ev: ; @_ZN13Convolution2DILi64ELi1ELi28ELi28ELi3ELi32EEC1Ev
	.cfi_startproc
; %bb.0:
	sub	sp, sp, #32
	.cfi_def_cfa_offset 32
	stp	x29, x30, [sp, #16]             ; 16-byte Folded Spill
	add	x29, sp, #16
	.cfi_def_cfa w29, 16
	.cfi_offset w30, -8
	.cfi_offset w29, -16
	str	x0, [sp, #8]
	ldr	x0, [sp, #8]
	str	x0, [sp]                        ; 8-byte Folded Spill
	bl	__ZN13Convolution2DILi64ELi1ELi28ELi28ELi3ELi32EEC2Ev
	ldr	x0, [sp]                        ; 8-byte Folded Reload
	.cfi_def_cfa wsp, 32
	ldp	x29, x30, [sp, #16]             ; 16-byte Folded Reload
	add	sp, sp, #32
	.cfi_def_cfa_offset 0
	.cfi_restore w30
	.cfi_restore w29
	ret
	.cfi_endproc
                                        ; -- End function
	.globl	__ZN13Convolution2DILi64ELi1ELi28ELi28ELi3ELi32EE4initE11cmdline_optP6loggerR9rnd_gen_t16Convolution2DCfg ; -- Begin function _ZN13Convolution2DILi64ELi1ELi28ELi28ELi3ELi32EE4initE11cmdline_optP6loggerR9rnd_gen_t16Convolution2DCfg
	.weak_definition	__ZN13Convolution2DILi64ELi1ELi28ELi28ELi3ELi32EE4initE11cmdline_optP6loggerR9rnd_gen_t16Convolution2DCfg
	.p2align	2
__ZN13Convolution2DILi64ELi1ELi28ELi28ELi3ELi32EE4initE11cmdline_optP6loggerR9rnd_gen_t16Convolution2DCfg: ; @_ZN13Convolution2DILi64ELi1ELi28ELi28ELi3ELi32EE4initE11cmdline_optP6loggerR9rnd_gen_t16Convolution2DCfg
	.cfi_startproc
; %bb.0:
	sub	sp, sp, #96
	.cfi_def_cfa_offset 96
	stp	x29, x30, [sp, #80]             ; 16-byte Folded Spill
	add	x29, sp, #80
	.cfi_def_cfa w29, 16
	.cfi_offset w30, -8
	.cfi_offset w29, -16
	str	x1, [sp, #24]                   ; 8-byte Folded Spill
	stur	x0, [x29, #-16]
	stur	x2, [x29, #-24]
	stur	x3, [x29, #-32]
	ldur	x0, [x29, #-16]
	str	x0, [sp, #16]                   ; 8-byte Folded Spill
	mov	x2, #120
	bl	_memcpy
	ldr	x9, [sp, #16]                   ; 8-byte Folded Reload
	ldur	x8, [x29, #-24]
	str	x8, [x9, #120]
	mov	w0, #9
	bl	__Z4sqrtB6v15007IiENSt3__19enable_ifIXsr3std11is_integralIT_EE5valueEdE4typeES2_
	ldr	x8, [sp, #16]                   ; 8-byte Folded Reload
	fmov	d1, d0
	fmov	d0, #1.00000000
	fdiv	d0, d0, d1
	fcvt	s0, d0
	stur	s0, [x29, #-36]
	add	x0, x8, #136
	ldur	x2, [x29, #-32]
	ldur	s0, [x29, #-36]
	fneg	s0, s0
	ldur	s1, [x29, #-36]
	mov	w1, #32
	str	w1, [sp, #12]                   ; 4-byte Folded Spill
	bl	__ZN6tensorIfLi32ELi1ELi3ELi3EE12init_uniformEiR9rnd_gen_tff
	ldr	w1, [sp, #12]                   ; 4-byte Folded Reload
	ldr	x8, [sp, #16]                   ; 8-byte Folded Reload
	add	x0, x8, #1292
	ldur	x2, [x29, #-32]
	ldur	s0, [x29, #-36]
	fneg	s0, s0
	ldur	s1, [x29, #-36]
	bl	__ZN6tensorIfLi32ELi1ELi1ELi1EE12init_uniformEiR9rnd_gen_tff
	ldr	x8, [sp, #16]                   ; 8-byte Folded Reload
	ldr	x1, [sp, #24]                   ; 8-byte Folded Reload
	mov	x9, #39584
	movk	x9, #87, lsl #16
	add	x0, x8, x9
	ldr	s0, [x1, #16]
	mov	w8, #26214
	movk	w8, #16230, lsl #16
	fmov	s1, w8
	str	s1, [sp, #36]                   ; 4-byte Folded Spill
	mov	w8, #14269
	movk	w8, #13702, lsl #16
	fmov	s2, w8
	str	s2, [sp, #40]                   ; 4-byte Folded Spill
	bl	__ZN8AdaDeltaILi32ELi1ELi3ELi3EE4initEfff
	ldr	x8, [sp, #16]                   ; 8-byte Folded Reload
	ldr	x1, [sp, #24]                   ; 8-byte Folded Reload
	ldr	s1, [sp, #36]                   ; 4-byte Folded Reload
	ldr	s2, [sp, #40]                   ; 4-byte Folded Reload
	mov	x9, #44220
	movk	x9, #87, lsl #16
	add	x0, x8, x9
	ldr	s0, [x1, #16]
	bl	__ZN8AdaDeltaILi32ELi1ELi1ELi1EE4initEfff
	.cfi_def_cfa wsp, 96
	ldp	x29, x30, [sp, #80]             ; 16-byte Folded Reload
	add	sp, sp, #96
	.cfi_def_cfa_offset 0
	.cfi_restore w30
	.cfi_restore w29
	ret
	.cfi_endproc
                                        ; -- End function
	.globl	__ZN6tensorIfLi64ELi1ELi28ELi28EE12init_uniformEiR9rnd_gen_tff ; -- Begin function _ZN6tensorIfLi64ELi1ELi28ELi28EE12init_uniformEiR9rnd_gen_tff
	.weak_definition	__ZN6tensorIfLi64ELi1ELi28ELi28EE12init_uniformEiR9rnd_gen_tff
	.p2align	2
__ZN6tensorIfLi64ELi1ELi28ELi28EE12init_uniformEiR9rnd_gen_tff: ; @_ZN6tensorIfLi64ELi1ELi28ELi28EE12init_uniformEiR9rnd_gen_tff
	.cfi_startproc
; %bb.0:
	sub	sp, sp, #96
	.cfi_def_cfa_offset 96
	stp	x29, x30, [sp, #80]             ; 16-byte Folded Spill
	add	x29, sp, #80
	.cfi_def_cfa w29, 16
	.cfi_offset w30, -8
	.cfi_offset w29, -16
	stur	x0, [x29, #-8]
	stur	w1, [x29, #-12]
	stur	x2, [x29, #-24]
	stur	s0, [x29, #-28]
	stur	s1, [x29, #-32]
	ldur	x0, [x29, #-8]
	str	x0, [sp, #16]                   ; 8-byte Folded Spill
	ldur	w1, [x29, #-12]
	bl	__ZN6tensorIfLi64ELi1ELi28ELi28EE6set_n0Ei
	ldr	x8, [sp, #16]                   ; 8-byte Folded Reload
	str	x8, [sp, #40]
	str	wzr, [sp, #36]
	b	LBB78_1
LBB78_1:                                ; =>This Loop Header: Depth=1
                                        ;     Child Loop BB78_3 Depth 2
                                        ;       Child Loop BB78_5 Depth 3
                                        ;         Child Loop BB78_7 Depth 4
	ldr	w8, [sp, #36]
	ldur	w9, [x29, #-12]
	subs	w8, w8, w9
	cset	w8, ge
	tbnz	w8, #0, LBB78_16
	b	LBB78_2
LBB78_2:                                ;   in Loop: Header=BB78_1 Depth=1
	str	wzr, [sp, #32]
	b	LBB78_3
LBB78_3:                                ;   Parent Loop BB78_1 Depth=1
                                        ; =>  This Loop Header: Depth=2
                                        ;       Child Loop BB78_5 Depth 3
                                        ;         Child Loop BB78_7 Depth 4
	ldr	w8, [sp, #32]
	subs	w8, w8, #1
	cset	w8, ge
	tbnz	w8, #0, LBB78_14
	b	LBB78_4
LBB78_4:                                ;   in Loop: Header=BB78_3 Depth=2
	str	wzr, [sp, #28]
	b	LBB78_5
LBB78_5:                                ;   Parent Loop BB78_1 Depth=1
                                        ;     Parent Loop BB78_3 Depth=2
                                        ; =>    This Loop Header: Depth=3
                                        ;         Child Loop BB78_7 Depth 4
	ldr	w8, [sp, #28]
	subs	w8, w8, #28
	cset	w8, ge
	tbnz	w8, #0, LBB78_12
	b	LBB78_6
LBB78_6:                                ;   in Loop: Header=BB78_5 Depth=3
	str	wzr, [sp, #24]
	b	LBB78_7
LBB78_7:                                ;   Parent Loop BB78_1 Depth=1
                                        ;     Parent Loop BB78_3 Depth=2
                                        ;       Parent Loop BB78_5 Depth=3
                                        ; =>      This Inner Loop Header: Depth=4
	ldr	w8, [sp, #24]
	subs	w8, w8, #28
	cset	w8, ge
	tbnz	w8, #0, LBB78_10
	b	LBB78_8
LBB78_8:                                ;   in Loop: Header=BB78_7 Depth=4
	ldur	x0, [x29, #-24]
	ldur	s0, [x29, #-28]
	fcvt	d0, s0
	ldur	s1, [x29, #-32]
	fcvt	d1, s1
	bl	__ZN9rnd_gen_t4randEdd
	fcvt	s0, d0
	str	s0, [sp, #12]                   ; 4-byte Folded Spill
	ldr	x0, [sp, #40]
	ldr	w1, [sp, #36]
	ldr	w2, [sp, #32]
	ldr	w3, [sp, #28]
	ldr	w4, [sp, #24]
	bl	__ZN6tensorIfLi64ELi1ELi28ELi28EEclEiiii
	ldr	s0, [sp, #12]                   ; 4-byte Folded Reload
	str	s0, [x0]
	b	LBB78_9
LBB78_9:                                ;   in Loop: Header=BB78_7 Depth=4
	ldr	w8, [sp, #24]
	add	w8, w8, #1
	str	w8, [sp, #24]
	b	LBB78_7
LBB78_10:                               ;   in Loop: Header=BB78_5 Depth=3
	b	LBB78_11
LBB78_11:                               ;   in Loop: Header=BB78_5 Depth=3
	ldr	w8, [sp, #28]
	add	w8, w8, #1
	str	w8, [sp, #28]
	b	LBB78_5
LBB78_12:                               ;   in Loop: Header=BB78_3 Depth=2
	b	LBB78_13
LBB78_13:                               ;   in Loop: Header=BB78_3 Depth=2
	ldr	w8, [sp, #32]
	add	w8, w8, #1
	str	w8, [sp, #32]
	b	LBB78_3
LBB78_14:                               ;   in Loop: Header=BB78_1 Depth=1
	b	LBB78_15
LBB78_15:                               ;   in Loop: Header=BB78_1 Depth=1
	ldr	w8, [sp, #36]
	add	w8, w8, #1
	str	w8, [sp, #36]
	b	LBB78_1
LBB78_16:
	.cfi_def_cfa wsp, 96
	ldp	x29, x30, [sp, #80]             ; 16-byte Folded Reload
	add	sp, sp, #96
	.cfi_def_cfa_offset 0
	.cfi_restore w30
	.cfi_restore w29
	ret
	.cfi_endproc
                                        ; -- End function
	.globl	__ZN6tensorIfLi64ELi32ELi26ELi26EE12init_uniformEiR9rnd_gen_tff ; -- Begin function _ZN6tensorIfLi64ELi32ELi26ELi26EE12init_uniformEiR9rnd_gen_tff
	.weak_definition	__ZN6tensorIfLi64ELi32ELi26ELi26EE12init_uniformEiR9rnd_gen_tff
	.p2align	2
__ZN6tensorIfLi64ELi32ELi26ELi26EE12init_uniformEiR9rnd_gen_tff: ; @_ZN6tensorIfLi64ELi32ELi26ELi26EE12init_uniformEiR9rnd_gen_tff
	.cfi_startproc
; %bb.0:
	sub	sp, sp, #96
	.cfi_def_cfa_offset 96
	stp	x29, x30, [sp, #80]             ; 16-byte Folded Spill
	add	x29, sp, #80
	.cfi_def_cfa w29, 16
	.cfi_offset w30, -8
	.cfi_offset w29, -16
	stur	x0, [x29, #-8]
	stur	w1, [x29, #-12]
	stur	x2, [x29, #-24]
	stur	s0, [x29, #-28]
	stur	s1, [x29, #-32]
	ldur	x0, [x29, #-8]
	str	x0, [sp, #16]                   ; 8-byte Folded Spill
	ldur	w1, [x29, #-12]
	bl	__ZN6tensorIfLi64ELi32ELi26ELi26EE6set_n0Ei
	ldr	x8, [sp, #16]                   ; 8-byte Folded Reload
	str	x8, [sp, #40]
	str	wzr, [sp, #36]
	b	LBB79_1
LBB79_1:                                ; =>This Loop Header: Depth=1
                                        ;     Child Loop BB79_3 Depth 2
                                        ;       Child Loop BB79_5 Depth 3
                                        ;         Child Loop BB79_7 Depth 4
	ldr	w8, [sp, #36]
	ldur	w9, [x29, #-12]
	subs	w8, w8, w9
	cset	w8, ge
	tbnz	w8, #0, LBB79_16
	b	LBB79_2
LBB79_2:                                ;   in Loop: Header=BB79_1 Depth=1
	str	wzr, [sp, #32]
	b	LBB79_3
LBB79_3:                                ;   Parent Loop BB79_1 Depth=1
                                        ; =>  This Loop Header: Depth=2
                                        ;       Child Loop BB79_5 Depth 3
                                        ;         Child Loop BB79_7 Depth 4
	ldr	w8, [sp, #32]
	subs	w8, w8, #32
	cset	w8, ge
	tbnz	w8, #0, LBB79_14
	b	LBB79_4
LBB79_4:                                ;   in Loop: Header=BB79_3 Depth=2
	str	wzr, [sp, #28]
	b	LBB79_5
LBB79_5:                                ;   Parent Loop BB79_1 Depth=1
                                        ;     Parent Loop BB79_3 Depth=2
                                        ; =>    This Loop Header: Depth=3
                                        ;         Child Loop BB79_7 Depth 4
	ldr	w8, [sp, #28]
	subs	w8, w8, #26
	cset	w8, ge
	tbnz	w8, #0, LBB79_12
	b	LBB79_6
LBB79_6:                                ;   in Loop: Header=BB79_5 Depth=3
	str	wzr, [sp, #24]
	b	LBB79_7
LBB79_7:                                ;   Parent Loop BB79_1 Depth=1
                                        ;     Parent Loop BB79_3 Depth=2
                                        ;       Parent Loop BB79_5 Depth=3
                                        ; =>      This Inner Loop Header: Depth=4
	ldr	w8, [sp, #24]
	subs	w8, w8, #26
	cset	w8, ge
	tbnz	w8, #0, LBB79_10
	b	LBB79_8
LBB79_8:                                ;   in Loop: Header=BB79_7 Depth=4
	ldur	x0, [x29, #-24]
	ldur	s0, [x29, #-28]
	fcvt	d0, s0
	ldur	s1, [x29, #-32]
	fcvt	d1, s1
	bl	__ZN9rnd_gen_t4randEdd
	fcvt	s0, d0
	str	s0, [sp, #12]                   ; 4-byte Folded Spill
	ldr	x0, [sp, #40]
	ldr	w1, [sp, #36]
	ldr	w2, [sp, #32]
	ldr	w3, [sp, #28]
	ldr	w4, [sp, #24]
	bl	__ZN6tensorIfLi64ELi32ELi26ELi26EEclEiiii
	ldr	s0, [sp, #12]                   ; 4-byte Folded Reload
	str	s0, [x0]
	b	LBB79_9
LBB79_9:                                ;   in Loop: Header=BB79_7 Depth=4
	ldr	w8, [sp, #24]
	add	w8, w8, #1
	str	w8, [sp, #24]
	b	LBB79_7
LBB79_10:                               ;   in Loop: Header=BB79_5 Depth=3
	b	LBB79_11
LBB79_11:                               ;   in Loop: Header=BB79_5 Depth=3
	ldr	w8, [sp, #28]
	add	w8, w8, #1
	str	w8, [sp, #28]
	b	LBB79_5
LBB79_12:                               ;   in Loop: Header=BB79_3 Depth=2
	b	LBB79_13
LBB79_13:                               ;   in Loop: Header=BB79_3 Depth=2
	ldr	w8, [sp, #32]
	add	w8, w8, #1
	str	w8, [sp, #32]
	b	LBB79_3
LBB79_14:                               ;   in Loop: Header=BB79_1 Depth=1
	b	LBB79_15
LBB79_15:                               ;   in Loop: Header=BB79_1 Depth=1
	ldr	w8, [sp, #36]
	add	w8, w8, #1
	str	w8, [sp, #36]
	b	LBB79_1
LBB79_16:
	.cfi_def_cfa wsp, 96
	ldp	x29, x30, [sp, #80]             ; 16-byte Folded Reload
	add	sp, sp, #96
	.cfi_def_cfa_offset 0
	.cfi_restore w30
	.cfi_restore w29
	ret
	.cfi_endproc
                                        ; -- End function
	.globl	__Z9make_copyI6tensorIfLi64ELi1ELi28ELi28EEEPT_S3_i ; -- Begin function _Z9make_copyI6tensorIfLi64ELi1ELi28ELi28EEEPT_S3_i
	.weak_definition	__Z9make_copyI6tensorIfLi64ELi1ELi28ELi28EEEPT_S3_i
	.p2align	2
__Z9make_copyI6tensorIfLi64ELi1ELi28ELi28EEEPT_S3_i: ; @_Z9make_copyI6tensorIfLi64ELi1ELi28ELi28EEEPT_S3_i
	.cfi_startproc
; %bb.0:
	sub	sp, sp, #64
	.cfi_def_cfa_offset 64
	stp	x29, x30, [sp, #48]             ; 16-byte Folded Spill
	add	x29, sp, #48
	.cfi_def_cfa w29, 16
	.cfi_offset w30, -8
	.cfi_offset w29, -16
	stur	x0, [x29, #-8]
	stur	w1, [x29, #-12]
	mov	x0, #4100
	movk	x0, #3, lsl #16
	str	x0, [sp, #8]                    ; 8-byte Folded Spill
	bl	__Znwm
	ldr	x2, [sp, #8]                    ; 8-byte Folded Reload
	str	x0, [sp, #16]                   ; 8-byte Folded Spill
	ldur	x1, [x29, #-8]
	bl	_memcpy
	ldr	x0, [sp, #16]                   ; 8-byte Folded Reload
	str	x0, [sp, #24]
	ldr	x0, [sp, #24]
	.cfi_def_cfa wsp, 64
	ldp	x29, x30, [sp, #48]             ; 16-byte Folded Reload
	add	sp, sp, #64
	.cfi_def_cfa_offset 0
	.cfi_restore w30
	.cfi_restore w29
	ret
	.cfi_endproc
                                        ; -- End function
	.globl	__ZN6tensorIfLi64ELi1ELi28ELi28EE4add_EfRS0_ ; -- Begin function _ZN6tensorIfLi64ELi1ELi28ELi28EE4add_EfRS0_
	.weak_definition	__ZN6tensorIfLi64ELi1ELi28ELi28EE4add_EfRS0_
	.p2align	2
__ZN6tensorIfLi64ELi1ELi28ELi28EE4add_EfRS0_: ; @_ZN6tensorIfLi64ELi1ELi28ELi28EE4add_EfRS0_
	.cfi_startproc
; %bb.0:
	sub	sp, sp, #80
	.cfi_def_cfa_offset 80
	stp	x29, x30, [sp, #64]             ; 16-byte Folded Spill
	add	x29, sp, #64
	.cfi_def_cfa w29, 16
	.cfi_offset w30, -8
	.cfi_offset w29, -16
	stur	x0, [x29, #-8]
	stur	s0, [x29, #-12]
	stur	x1, [x29, #-24]
	ldur	x8, [x29, #-8]
	str	x8, [sp, #8]                    ; 8-byte Folded Spill
	str	x8, [sp, #32]
	ldr	x8, [sp, #32]
	ldr	w8, [x8]
	ldur	x9, [x29, #-24]
	ldr	w9, [x9]
	subs	w8, w8, w9
	cset	w8, eq
	tbnz	w8, #0, LBB81_2
	b	LBB81_1
LBB81_1:
	adrp	x0, l___func__._ZN6tensorIfLi2ELi1ELi1ELi1EE4add_EfRS0_@PAGE
	add	x0, x0, l___func__._ZN6tensorIfLi2ELi1ELi1ELi1EE4add_EfRS0_@PAGEOFF
	adrp	x1, l_.str.29@PAGE
	add	x1, x1, l_.str.29@PAGEOFF
	mov	w2, #200
	adrp	x3, l_.str.37@PAGE
	add	x3, x3, l_.str.37@PAGEOFF
	bl	___assert_rtn
LBB81_2:
	b	LBB81_3
LBB81_3:
	str	wzr, [sp, #28]
	b	LBB81_4
LBB81_4:                                ; =>This Loop Header: Depth=1
                                        ;     Child Loop BB81_6 Depth 2
                                        ;       Child Loop BB81_8 Depth 3
                                        ;         Child Loop BB81_10 Depth 4
	ldr	x9, [sp, #8]                    ; 8-byte Folded Reload
	ldr	w8, [sp, #28]
	ldr	w9, [x9]
	subs	w8, w8, w9
	cset	w8, ge
	tbnz	w8, #0, LBB81_19
	b	LBB81_5
LBB81_5:                                ;   in Loop: Header=BB81_4 Depth=1
	str	wzr, [sp, #24]
	b	LBB81_6
LBB81_6:                                ;   Parent Loop BB81_4 Depth=1
                                        ; =>  This Loop Header: Depth=2
                                        ;       Child Loop BB81_8 Depth 3
                                        ;         Child Loop BB81_10 Depth 4
	ldr	w8, [sp, #24]
	subs	w8, w8, #1
	cset	w8, ge
	tbnz	w8, #0, LBB81_17
	b	LBB81_7
LBB81_7:                                ;   in Loop: Header=BB81_6 Depth=2
	str	wzr, [sp, #20]
	b	LBB81_8
LBB81_8:                                ;   Parent Loop BB81_4 Depth=1
                                        ;     Parent Loop BB81_6 Depth=2
                                        ; =>    This Loop Header: Depth=3
                                        ;         Child Loop BB81_10 Depth 4
	ldr	w8, [sp, #20]
	subs	w8, w8, #28
	cset	w8, ge
	tbnz	w8, #0, LBB81_15
	b	LBB81_9
LBB81_9:                                ;   in Loop: Header=BB81_8 Depth=3
	str	wzr, [sp, #16]
	b	LBB81_10
LBB81_10:                               ;   Parent Loop BB81_4 Depth=1
                                        ;     Parent Loop BB81_6 Depth=2
                                        ;       Parent Loop BB81_8 Depth=3
                                        ; =>      This Inner Loop Header: Depth=4
	ldr	w8, [sp, #16]
	subs	w8, w8, #28
	cset	w8, ge
	tbnz	w8, #0, LBB81_13
	b	LBB81_11
LBB81_11:                               ;   in Loop: Header=BB81_10 Depth=4
	ldur	s0, [x29, #-12]
	str	s0, [sp, #4]                    ; 4-byte Folded Spill
	ldur	x0, [x29, #-24]
	ldr	w1, [sp, #28]
	ldr	w2, [sp, #24]
	ldr	w3, [sp, #20]
	ldr	w4, [sp, #16]
	bl	__ZN6tensorIfLi64ELi1ELi28ELi28EEclEiiii
	ldr	s0, [x0]
	str	s0, [sp]                        ; 4-byte Folded Spill
	ldr	x0, [sp, #32]
	ldr	w1, [sp, #28]
	ldr	w2, [sp, #24]
	ldr	w3, [sp, #20]
	ldr	w4, [sp, #16]
	bl	__ZN6tensorIfLi64ELi1ELi28ELi28EEclEiiii
	ldr	s1, [sp]                        ; 4-byte Folded Reload
	ldr	s0, [sp, #4]                    ; 4-byte Folded Reload
	ldr	s2, [x0]
	fmadd	s0, s0, s1, s2
	str	s0, [x0]
	b	LBB81_12
LBB81_12:                               ;   in Loop: Header=BB81_10 Depth=4
	ldr	w8, [sp, #16]
	add	w8, w8, #1
	str	w8, [sp, #16]
	b	LBB81_10
LBB81_13:                               ;   in Loop: Header=BB81_8 Depth=3
	b	LBB81_14
LBB81_14:                               ;   in Loop: Header=BB81_8 Depth=3
	ldr	w8, [sp, #20]
	add	w8, w8, #1
	str	w8, [sp, #20]
	b	LBB81_8
LBB81_15:                               ;   in Loop: Header=BB81_6 Depth=2
	b	LBB81_16
LBB81_16:                               ;   in Loop: Header=BB81_6 Depth=2
	ldr	w8, [sp, #24]
	add	w8, w8, #1
	str	w8, [sp, #24]
	b	LBB81_6
LBB81_17:                               ;   in Loop: Header=BB81_4 Depth=1
	b	LBB81_18
LBB81_18:                               ;   in Loop: Header=BB81_4 Depth=1
	ldr	w8, [sp, #28]
	add	w8, w8, #1
	str	w8, [sp, #28]
	b	LBB81_4
LBB81_19:
	ldr	x0, [sp, #32]
	.cfi_def_cfa wsp, 80
	ldp	x29, x30, [sp, #64]             ; 16-byte Folded Reload
	add	sp, sp, #80
	.cfi_def_cfa_offset 0
	.cfi_restore w30
	.cfi_restore w29
	ret
	.cfi_endproc
                                        ; -- End function
	.globl	__Z9make_copyI13Convolution2DILi64ELi1ELi28ELi28ELi3ELi32EEEPT_S3_i ; -- Begin function _Z9make_copyI13Convolution2DILi64ELi1ELi28ELi28ELi3ELi32EEEPT_S3_i
	.weak_definition	__Z9make_copyI13Convolution2DILi64ELi1ELi28ELi28ELi3ELi32EEEPT_S3_i
	.p2align	2
__Z9make_copyI13Convolution2DILi64ELi1ELi28ELi28ELi3ELi32EEEPT_S3_i: ; @_Z9make_copyI13Convolution2DILi64ELi1ELi28ELi28ELi3ELi32EEEPT_S3_i
	.cfi_startproc
; %bb.0:
	sub	sp, sp, #64
	.cfi_def_cfa_offset 64
	stp	x29, x30, [sp, #48]             ; 16-byte Folded Spill
	add	x29, sp, #48
	.cfi_def_cfa w29, 16
	.cfi_offset w30, -8
	.cfi_offset w29, -16
	stur	x0, [x29, #-8]
	stur	w1, [x29, #-12]
	mov	x0, #44760
	movk	x0, #87, lsl #16
	str	x0, [sp, #8]                    ; 8-byte Folded Spill
	bl	__Znwm
	ldr	x2, [sp, #8]                    ; 8-byte Folded Reload
	str	x0, [sp, #16]                   ; 8-byte Folded Spill
	ldur	x1, [x29, #-8]
	bl	_memcpy
	ldr	x0, [sp, #16]                   ; 8-byte Folded Reload
	str	x0, [sp, #24]
	ldr	x0, [sp, #24]
	.cfi_def_cfa wsp, 64
	ldp	x29, x30, [sp, #48]             ; 16-byte Folded Reload
	add	sp, sp, #64
	.cfi_def_cfa_offset 0
	.cfi_restore w30
	.cfi_restore w29
	ret
	.cfi_endproc
                                        ; -- End function
	.globl	__ZN13Convolution2DILi64ELi1ELi28ELi28ELi3ELi32EE9rand_gradER9rnd_gen_tff ; -- Begin function _ZN13Convolution2DILi64ELi1ELi28ELi28ELi3ELi32EE9rand_gradER9rnd_gen_tff
	.weak_definition	__ZN13Convolution2DILi64ELi1ELi28ELi28ELi3ELi32EE9rand_gradER9rnd_gen_tff
	.p2align	2
__ZN13Convolution2DILi64ELi1ELi28ELi28ELi3ELi32EE9rand_gradER9rnd_gen_tff: ; @_ZN13Convolution2DILi64ELi1ELi28ELi28ELi3ELi32EE9rand_gradER9rnd_gen_tff
	.cfi_startproc
; %bb.0:
	sub	sp, sp, #64
	.cfi_def_cfa_offset 64
	stp	x29, x30, [sp, #48]             ; 16-byte Folded Spill
	add	x29, sp, #48
	.cfi_def_cfa w29, 16
	.cfi_offset w30, -8
	.cfi_offset w29, -16
	stur	x0, [x29, #-8]
	stur	x1, [x29, #-16]
	stur	s0, [x29, #-20]
	str	s1, [sp, #24]
	ldur	x8, [x29, #-8]
	str	x8, [sp, #8]                    ; 8-byte Folded Spill
	mov	x9, #34196
	movk	x9, #84, lsl #16
	add	x0, x8, x9
	ldur	x2, [x29, #-16]
	ldur	s0, [x29, #-20]
	ldr	s1, [sp, #24]
	mov	w1, #32
	str	w1, [sp, #20]                   ; 4-byte Folded Spill
	bl	__ZN6tensorIfLi32ELi1ELi3ELi3EE12init_uniformEiR9rnd_gen_tff
	ldr	x8, [sp, #8]                    ; 8-byte Folded Reload
	ldr	w1, [sp, #20]                   ; 4-byte Folded Reload
	mov	x9, #35352
	movk	x9, #84, lsl #16
	add	x0, x8, x9
	ldur	x2, [x29, #-16]
	ldur	s0, [x29, #-20]
	ldr	s1, [sp, #24]
	bl	__ZN6tensorIfLi32ELi1ELi1ELi1EE12init_uniformEiR9rnd_gen_tff
	.cfi_def_cfa wsp, 64
	ldp	x29, x30, [sp, #48]             ; 16-byte Folded Reload
	add	sp, sp, #64
	.cfi_def_cfa_offset 0
	.cfi_restore w30
	.cfi_restore w29
	ret
	.cfi_endproc
                                        ; -- End function
	.globl	__ZN13Convolution2DILi64ELi1ELi28ELi28ELi3ELi32EE9copy_gradERS0_ ; -- Begin function _ZN13Convolution2DILi64ELi1ELi28ELi28ELi3ELi32EE9copy_gradERS0_
	.weak_definition	__ZN13Convolution2DILi64ELi1ELi28ELi28ELi3ELi32EE9copy_gradERS0_
	.p2align	2
__ZN13Convolution2DILi64ELi1ELi28ELi28ELi3ELi32EE9copy_gradERS0_: ; @_ZN13Convolution2DILi64ELi1ELi28ELi28ELi3ELi32EE9copy_gradERS0_
	.cfi_startproc
; %bb.0:
	sub	sp, sp, #48
	.cfi_def_cfa_offset 48
	stp	x29, x30, [sp, #32]             ; 16-byte Folded Spill
	add	x29, sp, #32
	.cfi_def_cfa w29, 16
	.cfi_offset w30, -8
	.cfi_offset w29, -16
	stur	x0, [x29, #-8]
	str	x1, [sp, #16]
	ldur	x8, [x29, #-8]
	str	x8, [sp, #8]                    ; 8-byte Folded Spill
	ldr	x10, [sp, #16]
	mov	x9, #34196
	movk	x9, #84, lsl #16
	add	x1, x10, x9
	add	x0, x8, x9
	mov	x2, #1156
	bl	_memcpy
	ldr	x8, [sp, #8]                    ; 8-byte Folded Reload
	ldr	x10, [sp, #16]
	mov	x9, #35352
	movk	x9, #84, lsl #16
	add	x1, x10, x9
	add	x0, x8, x9
	mov	x2, #132
	bl	_memcpy
	.cfi_def_cfa wsp, 48
	ldp	x29, x30, [sp, #32]             ; 16-byte Folded Reload
	add	sp, sp, #48
	.cfi_def_cfa_offset 0
	.cfi_restore w30
	.cfi_restore w29
	ret
	.cfi_endproc
                                        ; -- End function
	.globl	__ZN13Convolution2DILi64ELi1ELi28ELi28ELi3ELi32EE8add_gradEf ; -- Begin function _ZN13Convolution2DILi64ELi1ELi28ELi28ELi3ELi32EE8add_gradEf
	.weak_definition	__ZN13Convolution2DILi64ELi1ELi28ELi28ELi3ELi32EE8add_gradEf
	.p2align	2
__ZN13Convolution2DILi64ELi1ELi28ELi28ELi3ELi32EE8add_gradEf: ; @_ZN13Convolution2DILi64ELi1ELi28ELi28ELi3ELi32EE8add_gradEf
	.cfi_startproc
; %bb.0:
	sub	sp, sp, #48
	.cfi_def_cfa_offset 48
	stp	x29, x30, [sp, #32]             ; 16-byte Folded Spill
	add	x29, sp, #32
	.cfi_def_cfa w29, 16
	.cfi_offset w30, -8
	.cfi_offset w29, -16
	stur	x0, [x29, #-8]
	stur	s0, [x29, #-12]
	ldur	x8, [x29, #-8]
	str	x8, [sp, #8]                    ; 8-byte Folded Spill
	mov	x9, x8
	add	x0, x9, #136
	ldur	s0, [x29, #-12]
	mov	x9, #34196
	movk	x9, #84, lsl #16
	add	x1, x8, x9
	bl	__ZN6tensorIfLi32ELi1ELi3ELi3EE4add_EfRS0_
	ldr	x8, [sp, #8]                    ; 8-byte Folded Reload
	mov	x9, x8
	add	x0, x9, #1292
	ldur	s0, [x29, #-12]
	mov	x9, #35352
	movk	x9, #84, lsl #16
	add	x1, x8, x9
	bl	__ZN6tensorIfLi32ELi1ELi1ELi1EE4add_EfRS0_
	.cfi_def_cfa wsp, 48
	ldp	x29, x30, [sp, #32]             ; 16-byte Folded Reload
	add	sp, sp, #48
	.cfi_def_cfa_offset 0
	.cfi_restore w30
	.cfi_restore w29
	ret
	.cfi_endproc
                                        ; -- End function
	.globl	__Z6to_devI6tensorIfLi64ELi32ELi26ELi26EEEvPT_i ; -- Begin function _Z6to_devI6tensorIfLi64ELi32ELi26ELi26EEEvPT_i
	.weak_definition	__Z6to_devI6tensorIfLi64ELi32ELi26ELi26EEEvPT_i
	.p2align	2
__Z6to_devI6tensorIfLi64ELi32ELi26ELi26EEEvPT_i: ; @_Z6to_devI6tensorIfLi64ELi32ELi26ELi26EEEvPT_i
	.cfi_startproc
; %bb.0:
	sub	sp, sp, #16
	.cfi_def_cfa_offset 16
	str	x0, [sp, #8]
	str	w1, [sp, #4]
	add	sp, sp, #16
	.cfi_def_cfa_offset 0
	ret
	.cfi_endproc
                                        ; -- End function
	.globl	__Z6to_devI13Convolution2DILi64ELi1ELi28ELi28ELi3ELi32EEEvPT_i ; -- Begin function _Z6to_devI13Convolution2DILi64ELi1ELi28ELi28ELi3ELi32EEEvPT_i
	.weak_definition	__Z6to_devI13Convolution2DILi64ELi1ELi28ELi28ELi3ELi32EEEvPT_i
	.p2align	2
__Z6to_devI13Convolution2DILi64ELi1ELi28ELi28ELi3ELi32EEEvPT_i: ; @_Z6to_devI13Convolution2DILi64ELi1ELi28ELi28ELi3ELi32EEEvPT_i
	.cfi_startproc
; %bb.0:
	sub	sp, sp, #16
	.cfi_def_cfa_offset 16
	str	x0, [sp, #8]
	str	w1, [sp, #4]
	add	sp, sp, #16
	.cfi_def_cfa_offset 0
	ret
	.cfi_endproc
                                        ; -- End function
	.globl	__ZN13Convolution2DILi64ELi1ELi28ELi28ELi3ELi32EE7forwardER6tensorIfLi64ELi1ELi28ELi28EEi ; -- Begin function _ZN13Convolution2DILi64ELi1ELi28ELi28ELi3ELi32EE7forwardER6tensorIfLi64ELi1ELi28ELi28EEi
	.weak_definition	__ZN13Convolution2DILi64ELi1ELi28ELi28ELi3ELi32EE7forwardER6tensorIfLi64ELi1ELi28ELi28EEi
	.p2align	2
__ZN13Convolution2DILi64ELi1ELi28ELi28ELi3ELi32EE7forwardER6tensorIfLi64ELi1ELi28ELi28EEi: ; @_ZN13Convolution2DILi64ELi1ELi28ELi28ELi3ELi32EE7forwardER6tensorIfLi64ELi1ELi28ELi28EEi
	.cfi_startproc
; %bb.0:
	sub	sp, sp, #96
	.cfi_def_cfa_offset 96
	stp	x29, x30, [sp, #80]             ; 16-byte Folded Spill
	add	x29, sp, #80
	.cfi_def_cfa w29, 16
	.cfi_offset w30, -8
	.cfi_offset w29, -16
	stur	x0, [x29, #-8]
	stur	x1, [x29, #-16]
	stur	w2, [x29, #-20]
	ldur	x8, [x29, #-8]
	str	x8, [sp, #8]                    ; 8-byte Folded Spill
	ldr	x0, [x8, #120]
	adrp	x1, l___PRETTY_FUNCTION__._ZN13Convolution2DILi64ELi1ELi28ELi28ELi3ELi32EE7forwardER6tensorIfLi64ELi1ELi28ELi28EEi@PAGE
	add	x1, x1, l___PRETTY_FUNCTION__._ZN13Convolution2DILi64ELi1ELi28ELi28ELi3ELi32EE7forwardER6tensorIfLi64ELi1ELi28ELi28EEi@PAGEOFF
	bl	__ZN6logger14log_start_fun_EPKc
	bl	__ZL7get_tscv
	ldr	x8, [sp, #8]                    ; 8-byte Folded Reload
	stur	x0, [x29, #-32]
	ldr	w8, [x8, #96]
	str	w8, [sp, #20]                   ; 4-byte Folded Spill
	subs	w8, w8, #0
	cset	w8, eq
	tbnz	w8, #0, LBB88_4
	b	LBB88_1
LBB88_1:
	ldr	w8, [sp, #20]                   ; 4-byte Folded Reload
	subs	w8, w8, #1
	cset	w8, eq
	tbnz	w8, #0, LBB88_5
	b	LBB88_2
LBB88_2:
	ldr	w8, [sp, #20]                   ; 4-byte Folded Reload
	subs	w8, w8, #2
	cset	w8, ne
	tbnz	w8, #0, LBB88_6
	b	LBB88_3
LBB88_3:
	ldr	x0, [sp, #8]                    ; 8-byte Folded Reload
	ldur	x1, [x29, #-16]
	ldur	w2, [x29, #-20]
	bl	__ZN13Convolution2DILi64ELi1ELi28ELi28ELi3ELi32EE15forward_cpu_ompER6tensorIfLi64ELi1ELi28ELi28EEi
	b	LBB88_10
LBB88_4:
	ldr	x0, [sp, #8]                    ; 8-byte Folded Reload
	ldur	x1, [x29, #-16]
	ldur	w2, [x29, #-20]
	bl	__ZN13Convolution2DILi64ELi1ELi28ELi28ELi3ELi32EE16forward_cpu_baseER6tensorIfLi64ELi1ELi28ELi28EEi
	b	LBB88_10
LBB88_5:
	ldr	x0, [sp, #8]                    ; 8-byte Folded Reload
	ldur	x1, [x29, #-16]
	ldur	w2, [x29, #-20]
	bl	__ZN13Convolution2DILi64ELi1ELi28ELi28ELi3ELi32EE17forward_cuda_baseER6tensorIfLi64ELi1ELi28ELi28EEi
	b	LBB88_10
LBB88_6:
	ldr	x8, [sp, #8]                    ; 8-byte Folded Reload
